******************************************************************************
                  TI ARM Linker PC v16.9.6                     
******************************************************************************
>> Linked Tue May 29 14:01:09 2018

OUTPUT FILE NAME:   <tag-cc1310-v3.out>
ENTRY POINT SYMBOL: "ResetISR"  address: 0000a77d


MEMORY CONFIGURATION

         name            origin    length      used     unused   attr    fill
----------------------  --------  ---------  --------  --------  ----  --------
  FLASH                 00000000   00020000  0000c5cb  00013a35  R  X
  GPRAM                 11000000   00002000  00000000  00002000  RW X
  SRAM                  20000000   00005000  0000467e  00000982  RW X


SEGMENT ALLOCATION MAP

run origin  load origin   length   init length attrs members
----------  ----------- ---------- ----------- ----- -------
00000000    00000000    00000dd7   00000dd7    r--
  00000000    00000000    0000003c   0000003c    r-- .resetVecs
  0000003c    0000003c    00000d9b   00000d9b    r-- .const
00001000    00001000    0000b7a8   0000b7a8    r-x
  00001000    00001000    0000003c   0000003c    r-- .const:ti_sysbios_knl_Task_Object__PARAMS__C
  0000103c    0000103c    00000034   00000034    r-- .const:ti_sysbios_knl_Mailbox_Object__PARAMS__C
  00001070    00001070    00000030   00000030    r-- .const:ti_sysbios_family_arm_m3_Hwi_Object__PARAMS__C
  000010a0    000010a0    0000002c   0000002c    r-- .const:ti_sysbios_hal_Hwi_Object__PARAMS__C
  000010cc    000010cc    00000028   00000028    r-- .const:ti_sysbios_heaps_HeapMem_Module__FXNS__C
  000010f4    000010f4    00000028   00000028    r-- .const:ti_sysbios_knl_Swi_Object__PARAMS__C
  0000111c    0000111c    00000024   00000024    r-- .const:ti_sysbios_gates_GateHwi_Module__FXNS__C
  00001140    00001140    00000024   00000024    r-- .const:ti_sysbios_gates_GateMutex_Module__FXNS__C
  00001164    00001164    00000024   00000024    r-- .const:ti_sysbios_heaps_HeapMem_Object__PARAMS__C
  00001188    00001188    00000024   00000024    r-- .const:ti_sysbios_knl_Clock_Object__PARAMS__C
  000011ac    000011ac    00000024   00000024    r-- .const:ti_sysbios_knl_Semaphore_Object__PARAMS__C
  000011d0    000011d0    00000020   00000020    r-- .const:ti_sysbios_family_arm_m3_Hwi_Object__DESC__C
  000011f0    000011f0    00000020   00000020    r-- .const:ti_sysbios_gates_GateHwi_Object__DESC__C
  00001210    00001210    00000020   00000020    r-- .const:ti_sysbios_gates_GateMutex_Object__DESC__C
  00001230    00001230    00000020   00000020    r-- .const:ti_sysbios_hal_Hwi_Object__DESC__C
  00001250    00001250    00000020   00000020    r-- .const:ti_sysbios_heaps_HeapMem_Object__DESC__C
  00001270    00001270    00000020   00000020    r-- .const:ti_sysbios_knl_Clock_Object__DESC__C
  00001290    00001290    00000020   00000020    r-- .const:ti_sysbios_knl_Mailbox_Object__DESC__C
  000012b0    000012b0    00000020   00000020    r-- .const:ti_sysbios_knl_Queue_Object__DESC__C
  000012d0    000012d0    00000020   00000020    r-- .const:ti_sysbios_knl_Semaphore_Object__DESC__C
  000012f0    000012f0    00000020   00000020    r-- .const:ti_sysbios_knl_Swi_Object__DESC__C
  00001310    00001310    00000020   00000020    r-- .const:ti_sysbios_knl_Task_Object__DESC__C
  00001330    00001330    00000018   00000018    r-- .const:ti_sysbios_gates_GateHwi_Object__PARAMS__C
  00001348    00001348    00000018   00000018    r-- .const:ti_sysbios_gates_GateMutex_Object__PARAMS__C
  00001360    00001360    00000018   00000018    r-- .const:ti_sysbios_knl_Queue_Object__PARAMS__C
  00001378    00001378    00000008   00000008    r-- .const:ti_sysbios_knl_Idle_funcList__C
  00001384    00001384    00000004   00000004    r-- .const:ti_sysbios_family_arm_cc26xx_Timer_startupNeeded__C
  00001388    00001388    00000004   00000004    r-- .const:ti_sysbios_family_arm_m3_Hwi_E_alreadyDefined__C
  0000138c    0000138c    00000004   00000004    r-- .const:ti_sysbios_family_arm_m3_Hwi_E_hwiLimitExceeded__C
  00001390    00001390    00000004   00000004    r-- .const:ti_sysbios_family_arm_m3_Hwi_NUM_INTERRUPTS__C
  00001394    00001394    00000004   00000004    r-- .const:ti_sysbios_family_arm_m3_Hwi_Object__count__C
  00001398    00001398    00000004   00000004    r-- .const:ti_sysbios_family_arm_m3_Hwi_Object__table__C
  0000139c    0000139c    00000004   00000004    r-- .const:ti_sysbios_family_arm_m3_Hwi_ccr__C
  000013a0    000013a0    00000004   00000004    r-- .const:ti_sysbios_family_arm_m3_Hwi_excHandlerFunc__C
  000013a4    000013a4    00000004   00000004    r-- .const:ti_sysbios_family_arm_m3_Hwi_nullIsrFunc__C
  000013a8    000013a8    00000004   00000004    r-- .const:ti_sysbios_family_arm_m3_Hwi_numSparseInterrupts__C
  000013ac    000013ac    00000004   00000004    r-- .const:ti_sysbios_family_arm_m3_Hwi_priGroup__C
  000013b0    000013b0    00000004   00000004    r-- .const:ti_sysbios_family_arm_m3_TaskSupport_stackAlignment__C
  000013b4    000013b4    00000004   00000004    r-- .const:ti_sysbios_heaps_HeapMem_E_memory__C
  000013b8    000013b8    00000004   00000004    r-- .const:ti_sysbios_heaps_HeapMem_Module__gateObj__C
  000013bc    000013bc    00000004   00000004    r-- .const:ti_sysbios_heaps_HeapMem_Object__count__C
  000013c0    000013c0    00000004   00000004    r-- .const:ti_sysbios_heaps_HeapMem_Object__table__C
  000013c4    000013c4    00000004   00000004    r-- .const:ti_sysbios_heaps_HeapMem_reqAlign__C
  000013c8    000013c8    00000004   00000004    r-- .const:ti_sysbios_knl_Clock_serviceMargin__C
  000013cc    000013cc    00000004   00000004    r-- .const:ti_sysbios_knl_Mailbox_Object__count__C
  000013d0    000013d0    00000004   00000004    r-- .const:ti_sysbios_knl_Mailbox_Object__table__C
  000013d4    000013d4    00000004   00000004    r-- .const:ti_sysbios_knl_Mailbox_maxTypeAlign__C
  000013d8    000013d8    00000004   00000004    r-- .const:ti_sysbios_knl_Queue_Object__count__C
  000013dc    000013dc    00000004   00000004    r-- .const:ti_sysbios_knl_Queue_Object__table__C
  000013e0    000013e0    00000004   00000004    r-- .const:ti_sysbios_knl_Swi_Object__count__C
  000013e4    000013e4    00000004   00000004    r-- .const:ti_sysbios_knl_Swi_Object__table__C
  000013e8    000013e8    00000004   00000004    r-- .const:ti_sysbios_knl_Swi_numPriorities__C
  000013ec    000013ec    00000004   00000004    r-- .const:ti_sysbios_knl_Task_Object__count__C
  000013f0    000013f0    00000004   00000004    r-- .const:ti_sysbios_knl_Task_Object__table__C
  000013f4    000013f4    00000004   00000004    r-- .const:ti_sysbios_knl_Task_allBlockedFunc__C
  000013f8    000013f8    00000004   00000004    r-- .const:ti_sysbios_knl_Task_defaultStackHeap__C
  000013fc    000013fc    00000004   00000004    r-- .const:ti_sysbios_knl_Task_defaultStackSize__C
  00001400    00001400    00000004   00000004    r-- .const:ti_sysbios_knl_Task_numConstructedTasks__C
  00001406    00001406    00000002   00000002    r-- .const:ti_sysbios_family_arm_cc26xx_Timer_Module__id__C
  00001408    00001408    00000002   00000002    r-- .const:ti_sysbios_family_arm_cc26xx_TimestampProvider_useClockTimer__C
  0000140a    0000140a    00000002   00000002    r-- .const:ti_sysbios_family_arm_m3_Hwi_Module__id__C
  0000140c    0000140c    00000002   00000002    r-- .const:ti_sysbios_gates_GateHwi_Module__id__C
  0000140e    0000140e    00000002   00000002    r-- .const:ti_sysbios_gates_GateMutex_Module__id__C
  00001410    00001410    00000002   00000002    r-- .const:ti_sysbios_heaps_HeapMem_Module__id__C
  00001412    00001412    00000002   00000002    r-- .const:ti_sysbios_knl_Task_initStackFlag__C
  00001414    00001414    00000001   00000001    r-- .const:ti_sysbios_knl_Clock_tickMode__C
  00001418    00001418    00000008   00000008    r-- .const:xdc_runtime_Startup_firstFxns__C
  00001420    00001420    00000008   00000008    r-- .const:xdc_runtime_Startup_lastFxns__C
  00001428    00001428    00000004   00000004    r-- .const:xdc_runtime_Assert_E_assertFailed__C
  0000142c    0000142c    00000004   00000004    r-- .const:xdc_runtime_Error_E_memory__C
  00001430    00001430    00000004   00000004    r-- .const:xdc_runtime_Error_policyFxn__C
  00001434    00001434    00000004   00000004    r-- .const:xdc_runtime_IGateProvider_Interface__BASE__C
  00001438    00001438    00000004   00000004    r-- .const:xdc_runtime_IHeap_Interface__BASE__C
  0000143c    0000143c    00000004   00000004    r-- .const:xdc_runtime_IModule_Interface__BASE__C
  00001440    00001440    00000004   00000004    r-- .const:xdc_runtime_Main_Module__diagsEnabled__C
  00001444    00001444    00000004   00000004    r-- .const:xdc_runtime_Main_Module__diagsIncluded__C
  00001448    00001448    00000004   00000004    r-- .const:xdc_runtime_Main_Module__diagsMask__C
  0000144c    0000144c    00000004   00000004    r-- .const:xdc_runtime_Memory_defaultHeapInstance__C
  00001450    00001450    00000004   00000004    r-- .const:xdc_runtime_Startup_execImpl__C
  00001454    00001454    00000004   00000004    r-- .const:xdc_runtime_Startup_maxPasses__C
  00001458    00001458    00000004   00000004    r-- .const:xdc_runtime_Startup_sfxnRts__C
  0000145c    0000145c    00000004   00000004    r-- .const:xdc_runtime_Startup_sfxnTab__C
  00001460    00001460    00000004   00000004    r-- .const:xdc_runtime_Startup_startModsFxn__C
  00001464    00001464    00000004   00000004    r-- .const:xdc_runtime_SysCallback_abortFxn__C
  00001468    00001468    00000004   00000004    r-- .const:xdc_runtime_SysCallback_exitFxn__C
  0000146c    0000146c    00000004   00000004    r-- .const:xdc_runtime_System_abortFxn__C
  00001470    00001470    00000004   00000004    r-- .const:xdc_runtime_System_exitFxn__C
  00001474    00001474    00000004   00000004    r-- .const:xdc_runtime_System_maxAtexitHandlers__C
  00001478    00001478    00000004   00000004    r-- .const:xdc_runtime_Text_charTab__C
  0000147c    0000147c    00000004   00000004    r-- .const:xdc_runtime_Text_nameEmpty__C
  00001480    00001480    00000004   00000004    r-- .const:xdc_runtime_Text_nameStatic__C
  00001484    00001484    00000004   00000004    r-- .const:xdc_runtime_Text_nameUnknown__C
  00001488    00001488    00000002   00000002    r-- .const:xdc_runtime_Main_Module__id__C
  0000148a    0000148a    00000002   00000002    r-- .const:xdc_runtime_Memory_Module__id__C
  0000148c    0000148c    00000002   00000002    r-- .const:xdc_runtime_Text_charCnt__C
  0000148e    0000148e    00000002   00000002    r-- .const:xdc_runtime_Text_isLoaded__C
  00001490    00001490    00000001   00000001    r-- .const:xdc_runtime_Error_policy__C
  00001494    00001494    00000004   00000004    r-- .const:ti_sysbios_rom_ROM_AONRTCChannelEnable
  00001498    00001498    00000004   00000004    r-- .const:ti_sysbios_rom_ROM_AONRTCCompareValueSet
  0000149c    0000149c    00000004   00000004    r-- .const:ti_sysbios_rom_ROM_AONRTCCurrentCompareValueGet
  000014a0    000014a0    00000004   00000004    r-- .const:ti_sysbios_rom_ROM_AONRTCEventClear
  000014a4    000014a4    00000004   00000004    r-- .const:ti_sysbios_rom_ROM_ti_sysbios_family_arm_cc26xx_Timer_getCount64__E
  000014a8    000014a8    00000004   00000004    r-- .const:ti_sysbios_rom_ROM_ti_sysbios_family_arm_cc26xx_Timer_getCurrentTick__E
  000014ac    000014ac    00000004   00000004    r-- .const:ti_sysbios_rom_ROM_ti_sysbios_family_arm_cc26xx_Timer_getMaxTicks__E
  000014b0    000014b0    00000004   00000004    r-- .const:ti_sysbios_rom_ROM_ti_sysbios_family_arm_cc26xx_Timer_initDevice__I
  000014b4    000014b4    00000004   00000004    r-- .const:ti_sysbios_rom_ROM_ti_sysbios_family_arm_cc26xx_Timer_setNextTick__E
  000014b8    000014b8    00000004   00000004    r-- .const:ti_sysbios_rom_ROM_ti_sysbios_family_arm_cc26xx_Timer_setThreshold__I
  000014bc    000014bc    00000004   00000004    r-- .const:ti_sysbios_rom_ROM_ti_sysbios_family_arm_cc26xx_Timer_start__E
  000014c0    000014c0    00000004   00000004    r-- .const:ti_sysbios_rom_ROM_ti_sysbios_family_arm_cc26xx_TimestampProvider_get32__E
  000014c4    000014c4    00000004   00000004    r-- .const:ti_sysbios_rom_ROM_xdc_runtime_Startup_getState__I
  000014c8    000014c8    00000004   00000004    r-- .const:ti_sysbios_rom_ROM_xdc_runtime_System_SupportProxy_abort__E
  000014cc    000014cc    00000004   00000004    r-- .const:ti_sysbios_rom_ROM_xdc_runtime_System_SupportProxy_exit__E
  000014d0    000014d0    00000004   00000004    r-- .const:ti_sysbios_gates_GateMutex_Instance_State_sem__O
  000014d4    000014d4    00000004   00000004    r-- .const:ti_sysbios_knl_Clock_Module_State_clockQ__O
  000014d8    000014d8    00000004   00000004    r-- .const:ti_sysbios_knl_Mailbox_Instance_State_dataQue__O
  000014dc    000014dc    00000004   00000004    r-- .const:ti_sysbios_knl_Mailbox_Instance_State_dataSem__O
  000014e0    000014e0    00000004   00000004    r-- .const:ti_sysbios_knl_Mailbox_Instance_State_freeQue__O
  000014e4    000014e4    00000004   00000004    r-- .const:ti_sysbios_knl_Mailbox_Instance_State_freeSem__O
  000014e8    000014e8    00000004   00000004    r-- .const:ti_sysbios_knl_Semaphore_Instance_State_pendQ__O
  000014ec    000014ec    00000004   00000004    r-- .const:ti_sysbios_knl_Task_Module_State_inactiveQ__O
  000014f0    000014f0    0000af08   0000af08    r-x .text
  0000c3f8    0000c3f8    000003b0   000003b0    r-- .cinit
0001ffa8    0001ffa8    00000058   00000058    r--
  0001ffa8    0001ffa8    00000058   00000058    r-- .ccfg
20000100    20000100    00000104   00000000    rw-
  20000100    20000100    00000044   00000000    rw- .data:ti_sysbios_knl_Task_Module__state__V
  20000144    20000144    00000034   00000000    rw- .data:ti_sysbios_family_arm_m3_Hwi_Module__state__V
  20000178    20000178    0000002c   00000000    rw- .data:ti_sysbios_knl_Clock_Module__state__V
  200001a4    200001a4    00000024   00000000    rw- .data:ti_sysbios_BIOS_Module__state__V
  200001c8    200001c8    0000001c   00000000    rw- .data:ti_sysbios_knl_Swi_Module__state__V
  200001e4    200001e4    00000008   00000000    rw- .data:ti_sysbios_family_arm_cc26xx_Timer_Module__state__V
  200001ec    200001ec    00000004   00000000    rw- .data:ti_sysbios_family_arm_cc26xx_TimestampProvider_Module__state__V
  200001f0    200001f0    00000008   00000000    rw- .data:xdc_runtime_Startup_Module__state__V
  200001f8    200001f8    00000008   00000000    rw- .data:xdc_runtime_System_Module__state__V
  20000200    20000200    00000004   00000000    rw- .data:xdc_runtime_Memory_Module__state__V
20000430    20000430    00000010   00000000    rw-
  20000430    20000430    00000010   00000000    rw- .TI.bound:dmaSpi0RxControlTableEntry
20000440    20000440    00000010   00000000    rw-
  20000440    20000440    00000010   00000000    rw- .TI.bound:dmaSpi0TxControlTableEntry
20000500    20000500    00000010   00000000    rw-
  20000500    20000500    00000010   00000000    rw- .TI.bound:dmaSpi1RxControlTableEntry
20000510    20000510    00004182   00000000    rw-
  20000510    20000510    00000010   00000000    rw- .TI.bound:dmaSpi1TxControlTableEntry
  20000520    20000520    000033c8   00000000    rw- .bss
  200038e8    200038e8    00000daa   00000000    rw- .data
20004d00    20004d00    00000300   00000000    rw-
  20004d00    20004d00    00000300   00000000    rw- .stack


SECTION ALLOCATION MAP

 output                                  attributes/
section   page    origin      length       input sections
--------  ----  ----------  ----------   ----------------
.const     0    0000003c    00000d9b     
                  0000003c    000006b4     radio_setup.obj (.const:patchGenfskRfe)
                  000006f0    0000028c     radio_setup.obj (.const:patchImageGenfsk)
                  0000097c    00000101     rtsv7M3_T_le_eabi.lib : ctype.obj (.const:.string:_ctypes_)
                  00000a7d    00000001     uart.obj (.const:.string:slip_end)
                  00000a7e    0000004c     drivers_cc13x0.aem3 : PowerCC26XX.oem3 (.const:resourceDB)
                  00000aca    00000002     uart.obj (.const:.string:slip_esc_end)
                  00000acc    00000048     tags-cc1310_pem3.oem3 (.const:.string)
                  00000b14    00000040     drivers_cc13x0.aem3 : UARTCC26XX.oem3 (.const:$O1$$)
                  00000b54    00000040     CC1310_LAUNCHXL.obj (.const:spiCC26XXDMAHWAttrs)
                  00000b94    00000038     drivers_cc13x0.aem3 : SPICC26XXDMA.oem3 (.const:$O1$$)
                  00000bcc    0000002c     tags-cc1310_pem3.oem3 (.const:xdc_runtime_Startup_sfxnTab__A)
                  00000bf8    00000028     drivers_cc13x0.aem3 : UARTCC26XX.oem3 (.const:UARTCC26XX_fxnTable)
                  00000c20    00000024     CC1310_LAUNCHXL.obj (.const:SPI_config)
                  00000c44    00000024     drivers_cc13x0.aem3 : UART.oem3 (.const:UART_defaultParams)
                  00000c68    00000020                         : SPI.oem3 (.const:SPI_defaultParams)
                  00000c88    00000020     CC1310_LAUNCHXL.obj (.const:uartCC26XXHWAttrs)
                  00000ca8    0000001c     CC1310_LAUNCHXL.obj (.const:BoardGpioInitTable)
                  00000cc4    00000018     drivers_cc13x0.aem3 : I2CCC26XX.oem3 (.const:I2CCC26XX_fxnTable)
                  00000cdc    00000018     CC1310_LAUNCHXL.obj (.const:I2C_config)
                  00000cf4    00000018     CC1310_LAUNCHXL.obj (.const:PowerCC26XX_config)
                  00000d0c    00000018     drivers_cc13x0.aem3 : SPICC26XXDMA.oem3 (.const:SPICC26XXDMA_fxnTable)
                  00000d24    00000018     CC1310_LAUNCHXL.obj (.const:UART_config)
                  00000d3c    00000018     CC1310_LAUNCHXL.obj (.const:i2cCC26xxHWAttrs)
                  00000d54    00000016     tags-cc1310_pem3.oem3 (.const:xdc_runtime_Startup_sfxnRts__A)
                  00000d6a    00000002     uart.obj (.const:.string:slip_esc_esc)
                  00000d6c    00000010     drivers_cc13x0.aem3 : I2C.oem3 (.const:I2C_defaultParams)
                  00000d7c    00000010     CC1310_LAUNCHXL.obj (.const:UDMACC26XX_config)
                  00000d8c    0000000c     tags-cc1310_pem3.oem3 (.const:xdc_runtime_Startup_firstFxns__A)
                  00000d98    00000008     CC1310_LAUNCHXL.obj (.const:PINCC26XX_hwAttrs)
                  00000da0    00000008     drivers_cc13x0.aem3 : I2CCC26XX.oem3 (.const:bitRate)
                  00000da8    00000008     CC1310_LAUNCHXL.obj (.const:udmaHWAttrs)
                  00000db0    00000004     CC1310_LAUNCHXL.obj (.const)
                  00000db4    00000004     tags-cc1310_pem3.oem3 (.const:ti_sysbios_family_arm_m3_Hwi_swiDisable__C)
                  00000db8    00000004     tags-cc1310_pem3.oem3 (.const:ti_sysbios_family_arm_m3_Hwi_swiRestoreHwi__C)
                  00000dbc    00000004     tags-cc1310_pem3.oem3 (.const:ti_sysbios_family_arm_m3_Timer_E_cannotSupport__C)
                  00000dc0    00000004     tags-cc1310_pem3.oem3 (.const:ti_sysbios_family_arm_m3_Timer_startupNeeded__C)
                  00000dc4    00000004     tags-cc1310_pem3.oem3 (.const:ti_sysbios_knl_Clock_tickPeriod__C)
                  00000dc8    00000004     tags-cc1310_pem3.oem3 (.const:ti_sysbios_knl_Clock_triggerClock__C)
                  00000dcc    00000004     tags-cc1310_pem3.oem3 (.const:ti_sysbios_knl_Idle_funcList__A)
                  00000dd0    00000004     tags-cc1310_pem3.oem3 (.const:xdc_runtime_System_extendFxn__C)
                  00000dd4    00000002     tags-cc1310_pem3.oem3 (.const:ti_sysbios_family_arm_m3_Timer_Module__id__C)
                  00000dd6    00000001     tags-cc1310_pem3.oem3 (.const:xdc_runtime_Text_charTab__A)

.text      0    000014f0    0000af08     
                  000014f0    00001106     rtsv7M3_T_le_eabi.lib : _printfi.obj (.text)
                  000025f6    00000002     drivers_cc13x0.aem3 : PowerCC26XX.oem3 (.text:emptyClockFunc)
                  000025f8    00000710     bmi160_support.obj (.text:bmi160_config_running_mode)
                  00002d08    000003dc     bmi160.obj (.text:bmi160_read_fifo_header_data)
                  000030e4    000003b0     bmi160.obj (.text:bmi160_read_bmm150_mag_trim)
                  00003494    0000033c     rom_sysbios.aem3 : rom_sysbios.obj (.text:xdc_runtime_System_doPrint__I)
                  000037d0    0000030c     drivers_cc13x0.aem3 : PowerCC26XX_calibrateRCOSC.oem3 (.text:PowerCC26XX_auxISR)
                  00003adc    000002f4                         : SPICC26XXDMA.oem3 (.text:SPICC26XXDMA_transfer)
                  00003dd0    00000288     i2c_sensors.obj (.text:bmi160Function)
                  00004058    00000228     driverlib.lib : sys_ctrl.obj (.text:NOROM_SysCtrlSetRechargeBeforePowerDown)
                  00004280    00000224     drivers_cc13x0.aem3 : PowerCC26XX.oem3 (.text:Power_sleep)
                  000044a4    0000021c     bmi160.obj (.text:bmi160_bmm150_mag_interface_init)
                  000046c0    000001f4     rtsv7M3_T_le_eabi.lib : ull_div_t2.obj (.text)
                  000048b4    000001f0     bmi160.obj (.text:bmi160_set_bmm150_mag_presetmode)
                  00004aa4    000001c4     rtsv7M3_T_le_eabi.lib : fopen.obj (.text)
                  00004c68    000001bc     drivers_cc13x0.aem3 : PINCC26XX.oem3 (.text:PIN_init)
                  00004e24    000001b6     rtsv7M3_T_le_eabi.lib : fd_add_t2.obj (.text)
                  00004fda    00000002                           : i_div0.obj (.text)
                  00004fdc    00000198     uart.obj (.text:uartTasks_init)
                  00005174    00000190     drivers_cc13x0.aem3 : PowerCC26XX_calibrateRCOSC.oem3 (.text:PowerCC26XX_doCalibrate)
                  00005304    0000016c     bmi160.obj (.text:bmi160_set_intr_enable_0)
                  00005470    00000168     tags-cc1310_pem3.oem3 (.text:xdc_runtime_System_printfExtend__I)
                  000055d8    00000164     drivers_cc13x0.aem3 : UARTCC26XX.oem3 (.text:UARTCC26XX_open)
                  0000573c    00000158                         : SPICC26XXDMA.oem3 (.text:SPICC26XXDMA_initIO)
                  00005894    00000154                         : I2CCC26XX.oem3 (.text:I2CCC26XX_open)
                  000059e8    00000136     rtsv7M3_T_le_eabi.lib : fd_div_t2.obj (.text)
                  00005b1e    00000002     rom_sysbios.aem3 : rom_sysbios.obj (.text:ti_sysbios_BIOS_linkedWithIncorrectBootLibrary__E)
                  00005b20    00000130     driverlib.lib : setup_rom.obj (.text:NOROM_SetupAfterColdResetWakeupFromShutDownCfg3)
                  00005c50    00000124     drivers_cc13x0.aem3 : SPICC26XXDMA.oem3 (.text:SPICC26XXDMA_open)
                  00005d74    0000011c                         : UARTCC26XX.oem3 (.text:UARTCC26XX_read)
                  00005e90    00000114                         : PowerCC26XX.oem3 (.text:Power_init)
                  00005fa4    00000112                         : UARTCC26XX.oem3 (.text:UARTCC26XX_hwiIntFxn)
                  000060b6    00000002     tags-cc1310_pem3.oem3 (.text:ti_sysbios_BIOS_nullFunc__I)
                  000060b8    00000110     drivers_cc13x0.aem3 : I2CCC26XX.oem3 (.text:I2CCC26XX_hwiFxn)
                  000061c8    0000010c     bmi160.obj (.text:bmi160_bmm150_mag_set_power_mode)
                  000062d4    000000fc     drivers_cc13x0.aem3 : UARTCC26XX.oem3 (.text:UARTCC26XX_write)
                  000063d0    000000fc     rtsv7M3_T_le_eabi.lib : fd_mul_t2.obj (.text)
                  000064cc    000000f4     radio_setup.obj (.text:radioSetup_init)
                  000065c0    000000f0     driverlib.lib : setup_rom.obj (.text:NOROM_SetupAfterColdResetWakeupFromShutDownCfg2)
                  000066b0    000000e8     drivers_cc13x0.aem3 : SPICC26XXDMA.oem3 (.text:SPICC26XXDMA_transferCancel)
                  00006798    000000e4     dpl_cc13x0.aem3 : PowerCC26XX_tirtos.oem3 (.text:PowerCC26XX_standbyPolicy)
                  0000687c    000000dc     drivers_cc13x0.aem3 : PINCC26XX.oem3 (.text:PINCC26XX_setIoCfg)
                  00006958    000000dc     rtsv7M3_T_le_eabi.lib : setvbuf.obj (.text)
                  00006a34    000000dc     uart.obj (.text:uartRxTaskFunction)
                  00006b10    000000d4     bmi160.obj (.text:bmi160_set_bmm150_mag_and_secondary_if_power_mode)
                  00006be4    000000d0     rtsv7M3_T_le_eabi.lib : s_scalbn.obj (.text)
                  00006cb4    000000c8                           : fflush.obj (.text)
                  00006d7c    000000c4     driverlib.lib : setup.obj (.text:TrimAfterColdResetWakeupFromShutDown)
                  00006e40    000000c0     drivers_cc13x0.aem3 : I2CCC26XX.oem3 (.text:I2CCC26XX_transfer)
                  00006f00    000000bc                         : PowerCC26XX.oem3 (.text:Power_releaseDependency)
                  00006fbc    000000bc                         : UARTCC26XX.oem3 (.text:UARTCC26XX_initHw)
                  00007078    000000bc     receive.obj (.text:receive_init)
                  00007134    000000bc     rtsv7M3_T_le_eabi.lib : open.obj (.text)
                  000071f0    000000b8     bmi160.obj (.text:bmi160_set_intr_enable_2)
                  000072a8    000000b4     drivers_cc13x0.aem3 : PowerCC26XX.oem3 (.text:Power_setDependency)
                  0000735c    000000b0     main.obj (.text:main)
                  0000740c    000000ac     rtsv7M3_T_le_eabi.lib : _io_perm.obj (.text)
                  000074b8    000000a8     driverlib.lib : setup.obj (.text:NOROM_SetupTrimDevice)
                  00007560    000000a6     drivers_cc13x0.aem3 : SPICC26XXDMA.oem3 (.text:SPICC26XXDMA_hwiFxn)
                  00007606    00000002     rom_sysbios.aem3 : rom_sysbios.obj (.text:ti_sysbios_knl_Clock_triggerFunc__I)
                  00007608    000000a4     driverlib.lib : setup_rom.obj (.text:NOROM_SetupAfterColdResetWakeupFromShutDownCfg1)
                  000076ac    000000a4     drivers_cc13x0.aem3 : PowerCC26XX.oem3 (.text:switchXOSCHFclockFunc)
                  00007750    000000a0     auto_init.aem3 : auto_init.oem3 (.text)
                  000077f0    000000a0     uart.obj (.text:uartTxTaskFunction)
                  00007890    0000009c     i2c_sensors.obj (.text:readDataFunction)
                  0000792c    0000009c     rtsv7M3_T_le_eabi.lib : memcpy_t2.obj (.text)
                  000079c8    00000098     drivers_cc13x0.aem3 : PINCC26XX.oem3 (.text:PIN_open)
                  00007a60    00000098                         : UARTCC26XX.oem3 (.text:UARTCC26XX_initIO)
                  00007af8    00000098     rtsv7M3_T_le_eabi.lib : fclose.obj (.text)
                  00007b90    00000098                           : fputc.obj (.text)
                  00007c28    00000098     rom_sysbios.aem3 : rom_sysbios.obj (.text:ti_sysbios_knl_Clock_workFuncDynamic__E)
                  00007cc0    00000092     rtsv7M3_T_le_eabi.lib : fs_div_t2.obj (.text)
                  00007d52    00000002     tags-cc1310_pem3.oem3 (.text:ti_sysbios_rom_cortexm_cc13xx_CC13xx_badRomRevision__E)
                  00007d54    00000090     drivers_cc13x0.aem3 : I2CCC26XX.oem3 (.text:I2CCC26XX_cancel)
                  00007de4    00000090                         : SPICC26XXDMA.oem3 (.text:SPICC26XXDMA_control)
                  00007e74    00000090     bmi160.obj (.text:bmi160_set_intr_fifo_wm)
                  00007f04    00000090     bmi160.obj (.text:bmi160_set_intr_level)
                  00007f94    00000090     bmi160.obj (.text:bmi160_set_output_enable)
                  00008024    0000008c     drivers_cc13x0.aem3 : I2CCC26XX.oem3 (.text:I2CCC26XX_primeTransfer)
                  000080b0    0000008c                         : UARTCC26XX.oem3 (.text:UARTCC26XX_close)
                  0000813c    0000008c                         : UARTCC26XX.oem3 (.text:UARTCC26XX_writeCancel)
                  000081c8    0000008c     spi_flash.obj (.text:setWEN)
                  00008254    0000008c     drivers_cc13x0.aem3 : UARTCC26XX.oem3 (.text:writeFinishedDoCallback)
                  000082e0    00000088     rf_queue_pointer.obj (.text:RFQueue_defineQueue)
                  00008368    00000088     i2c_sensors.obj (.text:i2cSensorsInit)
                  000083f0    00000086     rtsv7M3_T_le_eabi.lib : fd_cmp_t2.obj (.text:__aeabi_cdcmple)
                  00008476    00000086                           : fd_cmp_t2.obj (.text:__aeabi_cdrcmple)
                  000084fc    00000080     bmi160.obj (.text:bmi160_read_mag_xyzr)
                  0000857c    0000007c     radio_setup.obj (.text:rf_patch_rfe_genfsk)
                  000085f8    0000007a     rtsv7M3_T_le_eabi.lib : fs_mul_t2.obj (.text)
                  00008672    0000007a                           : memset_t2.obj (.text)
                  000086ec    00000078     bmi160.obj (.text:bmi160_set_gyro_output_data_rate)
                  00008764    00000078     spi_flash.obj (.text:spiFlashWritePage)
                  000087dc    00000078     drivers_cc13x0.aem3 : UARTCC26XX.oem3 (.text:writeTxFifoFlush)
                  00008854    00000074     driverlib.lib : setup_rom.obj (.text:NOROM_SetupSetVddrLevel)
                  000088c8    00000074     spi_flash.obj (.text:spiFlashReadPage)
                  0000893c    00000074     rom_sysbios.aem3 : rom_sysbios.obj (.text:ti_sysbios_family_arm_cc26xx_Timer_start__E)
                  000089b0    00000070     bmi160.obj (.text:bmi160_set_accel_range)
                  00008a20    00000070     rtsv7M3_T_le_eabi.lib : getdevice.obj (.text)
                  00008a90    0000006d     rom_sysbios.aem3 : rom_sysbios.obj (.text:xdc_runtime_System_formatNum__I)
                  00008afd    00000001     --HOLE-- [fill = 0]
                  00008afe    00000002                      : rom_sysbios.obj (.text:xdc_runtime_SysCallback_defaultAbort)
                  00008b00    0000006c     drivers_cc13x0.aem3 : PowerCC26XX_calibrateRCOSC.oem3 (.text:PowerCC26XX_initiateCalibration)
                  00008b6c    0000006c     bmi160.obj (.text:bmi160_bmm150_mag_wakeup)
                  00008bd8    00000068     drivers_cc13x0.aem3 : I2CCC26XX.oem3 (.text:I2CCC26XX_close)
                  00008c40    00000068     driverlib.lib : setup_rom.obj (.text:NOROM_SetupGetTrimForAmpcompCtrl)
                  00008ca8    00000068                   : setup_rom.obj (.text:NOROM_SetupGetTrimForAnabypassValue1)
                  00008d10    00000068                   : sys_ctrl.obj (.text:NOROM_SysCtrlAdjustRechargeAfterPowerDown)
                  00008d78    00000068                   : sys_ctrl.obj (.text:NOROM_SysCtrl_DCDC_VoltageConditionalControl)
                  00008de0    00000068     drivers_cc13x0.aem3 : UARTCC26XX.oem3 (.text:UARTCC26XX_readCancel)
                  00008e48    00000068     bmi160.obj (.text:bmi160_bmm150_mag_compensate_X)
                  00008eb0    00000068     bmi160.obj (.text:bmi160_bmm150_mag_compensate_Y)
                  00008f18    00000068     rtsv7M3_T_le_eabi.lib : copy_decompress_lzss.obj (.text:decompress:lzss)
                  00008f80    00000068     drivers_cc13x0.aem3 : PowerCC26XX.oem3 (.text:lfClockReadyCallback)
                  00008fe8    00000068     rtsv7M3_T_le_eabi.lib : hostlseek.obj (.text)
                  00009050    00000068                           : hostrename.obj (.text)
                  000090b8    00000068                           : trgmsg.obj (.text)
                  00009120    00000068     spi_flash.obj (.text:spiFlash_init)
                  00009188    00000064     driverlib.lib : osc.obj (.text:NOROM_OSCHF_AttemptToSwitchToXosc)
                  000091ec    00000064     drivers_cc13x0.aem3 : PINCC26XX.oem3 (.text:PIN_add)
                  00009250    00000064     bmi160_support.obj (.text:bmi160_interrupt_configuration)
                  000092b4    00000064     bmi160.obj (.text:bmi160_set_accel_bw)
                  00009318    00000064     bmi160.obj (.text:bmi160_set_accel_output_data_rate)
                  0000937c    00000064     bmi160.obj (.text:bmi160_set_fifo_accel_enable)
                  000093e0    00000064     bmi160.obj (.text:bmi160_set_fifo_gyro_enable)
                  00009444    00000064     bmi160.obj (.text:bmi160_set_fifo_header_enable)
                  000094a8    00000064     bmi160.obj (.text:bmi160_set_fifo_mag_enable)
                  0000950c    00000064     bmi160.obj (.text:bmi160_set_fifo_stop_on_full)
                  00009570    00000064     bmi160.obj (.text:bmi160_set_fifo_time_enable)
                  000095d4    00000064     bmi160.obj (.text:bmi160_set_gyro_bw)
                  00009638    00000064     bmi160.obj (.text:bmi160_set_gyro_sleep_state)
                  0000969c    00000064     bmi160.obj (.text:bmi160_set_gyro_sleep_trigger)
                  00009700    00000064     bmi160.obj (.text:bmi160_set_gyro_wakeup_intr)
                  00009764    00000064     bmi160.obj (.text:bmi160_set_gyro_wakeup_trigger)
                  000097c8    00000064     bmi160.obj (.text:bmi160_set_if_mode)
                  0000982c    00000064     bmi160.obj (.text:bmi160_set_mag_output_data_rate)
                  00009890    00000064     bmi160.obj (.text:bmi160_set_paging_enable)
                  000098f4    00000064     bmi160.obj (.text:bmi160_set_pullup_configuration)
                  00009958    00000064     bmi160.obj (.text:bmi160_set_target_page)
                  000099bc    00000064     drivers_cc13x0.aem3 : PowerCC26XX.oem3 (.text:configureXOSCHF)
                  00009a20    00000064     rtsv7M3_T_le_eabi.lib : fseek.obj (.text)
                  00009a84    00000060     driverlib.lib : osc.obj (.text:NOROM_OSCClockSourceSet)
                  00009ae4    00000060     drivers_cc13x0.aem3 : UARTCC26XX.oem3 (.text:UARTCC26XX_control)
                  00009b44    00000060     bmi160.obj (.text:bmi160_set_mag_manual_enable)
                  00009ba4    00000060     rtsv7M3_T_le_eabi.lib : hostopen.obj (.text)
                  00009c04    00000060                           : sprintf.obj (.text)
                  00009c64    0000005c     drivers_cc13x0.aem3 : PowerCC26XX_calibrateRCOSC.oem3 (.text:PowerCC26XX_RCOSC_clockFunc)
                  00009cc0    0000005c                         : PowerCC26XX.oem3 (.text:PowerCC26XX_calibrate)
                  00009d1c    0000005c                         : UDMACC26XX.oem3 (.text:UDMACC26XX_open)
                  00009d78    0000005c     bmi160.obj (.text:bmi160_bmm150_mag_compensate_Z)
                  00009dd4    0000005c     bmi160.obj (.text:bmi160_set_i2c_device_addr)
                  00009e30    0000005c     spi_flash.obj (.text:getWIP)
                  00009e8c    0000005c     rtsv7M3_T_le_eabi.lib : close.obj (.text)
                  00009ee8    0000005c                           : s_frexp.obj (.text)
                  00009f44    0000005c     tags-cc1310_pem3.oem3 (.text:xdc_runtime_Startup_getState__I)
                  00009fa0    0000005a     drivers_cc13x0.aem3 : SPICC26XXDMA.oem3 (.text:SPICC26XXDMA_close)
                  00009ffa    00000058                         : I2CCC26XX.oem3 (.text:I2CCC26XX_swiFxn)
                  0000a052    00000002     rom_sysbios.aem3 : rom_sysbios.obj (.text:xdc_runtime_SysCallback_defaultExit)
                  0000a054    00000058     drivers_cc13x0.aem3 : PINCC26XX.oem3 (.text:PIN_remove)
                  0000a0ac    00000058                         : SPICC26XXDMA.oem3 (.text:SPICC26XXDMA_initHw)
                  0000a104    00000058     bmi160.obj (.text:bmi160_read_accel_xyz)
                  0000a15c    00000058     bmi160.obj (.text:bmi160_read_gyro_xyz)
                  0000a1b4    00000058     rtsv7M3_T_le_eabi.lib : hostread.obj (.text)
                  0000a20c    00000058                           : hostwrite.obj (.text)
                  0000a264    00000058     spi_flash.obj (.text:spiFlashEraseChip)
                  0000a2bc    00000056     drivers_cc13x0.aem3 : SPICC26XXDMA.oem3 (.text:SPICC26XXDMA_swiFxn)
                  0000a312    00000054     rtsv7M3_T_le_eabi.lib : ltoa.obj (.text)
                  0000a366    00000002     --HOLE-- [fill = 0]
                  0000a368    00000050     driverlib.lib : setup_rom.obj (.text:NOROM_SetupSetCacheModeAccordingToCcfgSetting)
                  0000a3b8    00000050     radio_setup.obj (.text:applyGenfskPatch)
                  0000a408    00000050     bmi160_support.obj (.text:bmi160_i2c_bus_write)
                  0000a458    00000050     drivers_cc13x0.aem3 : UARTCC26XX.oem3 (.text:startTxFifoEmptyClk)
                  0000a4a8    0000004c                         : I2CCC26XX.oem3 (.text:I2CCC26XX_initHw)
                  0000a4f4    0000004c     rtsv7M3_T_le_eabi.lib : atoi.obj (.text)
                  0000a540    0000004c                           : cpy_tbl.obj (.text)
                  0000a58c    00000048     dpl_cc13x0.aem3 : ClockP_tirtos.oem3 (.text:ClockP_construct)
                  0000a5d4    00000048     drivers_cc13x0.aem3 : PINCC26XX.oem3 (.text:PIN_setOutputEnable)
                  0000a61c    00000048     bmi160_support.obj (.text:bmi160_initialize_sensor)
                  0000a664    00000048     rtsv7M3_T_le_eabi.lib : fd_toi_t2.obj (.text)
                  0000a6ac    00000048     rom_sysbios.aem3 : rom_sysbios.obj (.text:ti_sysbios_family_arm_m3_Timer_setPeriod__E)
                  0000a6f4    00000044     drivers_cc13x0.aem3 : RingBuf.oem3 (.text:RingBuf_put)
                  0000a738    00000044                         : SPICC26XXDMA.oem3 (.text:SPICC26XXDMA_csnCallback)
                  0000a77c    00000044     boot.aem3 : boot.oem3 (.text)
                  0000a7c0    00000044     drivers_cc13x0.aem3 : PowerCC26XX.oem3 (.text:notify)
                  0000a804    00000044     rtsv7M3_T_le_eabi.lib : fd_tou_t2.obj (.text)
                  0000a848    00000044                           : hostclose.obj (.text)
                  0000a88c    00000044                           : hostunlink.obj (.text)
                  0000a8d0    00000044     rom_sysbios.aem3 : rom_sysbios.obj (.text:ti_sysbios_family_arm_m3_Timer_start__E)
                  0000a914    00000040     drivers_cc13x0.aem3 : I2C.oem3 (.text:I2C_init)
                  0000a954    00000040                         : I2C.oem3 (.text:I2C_open)
                  0000a994    00000040                         : PINCC26XX.oem3 (.text:PINCC26XX_getConfig)
                  0000a9d4    00000040                         : PINCC26XX.oem3 (.text:PIN_swi)
                  0000aa14    00000040                         : SPI.oem3 (.text:SPI_init)
                  0000aa54    00000040                         : SPI.oem3 (.text:SPI_open)
                  0000aa94    00000040                         : UART.oem3 (.text:UART_init)
                  0000aad4    00000040                         : UART.oem3 (.text:UART_open)
                  0000ab14    00000040     bmi160.obj (.text:bmi160_init)
                  0000ab54    00000040     rtsv7M3_T_le_eabi.lib : u_divt2.obj (.text)
                  0000ab94    00000040     rom_sysbios.aem3 : rom_sysbios.obj (.text:ti_sysbios_family_arm_cc26xx_Timer_setThreshold__I)
                  0000abd4    0000003e     dpl_cc13x0.aem3 : HwiP_tirtos.oem3 (.text:HwiP_construct)
                  0000ac12    0000003e     drivers_cc13x0.aem3 : RingBuf.oem3 (.text:RingBuf_get)
                  0000ac50    0000003e     bmi160.obj (.text:bmi160_bmm150_mag_compensate_xyz)
                  0000ac8e    00000002     --HOLE-- [fill = 0]
                  0000ac90    0000003c     driverlib.lib : chipinfo.obj (.text:NOROM_ChipInfo_GetHwRevision)
                  0000accc    0000003c                   : osc.obj (.text:NOROM_OSC_HPOSCRelativeFrequencyOffsetGet)
                  0000ad08    0000003c     dpl_cc13x0.aem3 : SwiP_tirtos.oem3 (.text:SwiP_construct)
                  0000ad44    0000003c     drivers_cc13x0.aem3 : PowerCC26XX.oem3 (.text:disableLfClkQualifiersEnableClkLoss)
                  0000ad80    0000003c     rom_sysbios.aem3 : rom_sysbios.obj (.text:ti_sysbios_family_arm_m3_Hwi_construct2__E)
                  0000adbc    0000003c     uart.obj (.text:uartLocalRead)
                  0000adf8    0000003c     uart.obj (.text:uartLocalWrite)
                  0000ae34    00000038     drivers_cc13x0.aem3 : PINCC26XX.oem3 (.text:PIN_setOutputValue)
                  0000ae6c    00000038                         : UARTCC26XX.oem3 (.text:UARTCC26XX_swiIntFxn)
                  0000aea4    00000038     buffers.obj (.text:buffers_init)
                  0000aedc    00000038     drivers_cc13x0.aem3 : UARTCC26XX.oem3 (.text:readData)
                  0000af14    00000038     rtsv7M3_T_le_eabi.lib : fs_tod_t2.obj (.text)
                  0000af4c    00000038                           : fs_toi_t2.obj (.text)
                  0000af84    00000038     rom_sysbios.aem3 : rom_sysbios.obj (.text:ti_sysbios_family_arm_cc26xx_Timer_getCurrentTick__E)
                  0000afbc    00000038     drivers_cc13x0.aem3 : UARTCC26XX.oem3 (.text:writeData)
                  0000aff4    00000036                         : UDMACC26XX.oem3 (.text:UDMACC26XX_close)
                  0000b02a    00000036     rtsv7M3_T_le_eabi.lib : strncpy.obj (.text)
                  0000b060    00000034     driverlib.lib : osc.obj (.text:NOROM_OSCHF_SwitchToRcOscTurnOffXosc)
                  0000b094    00000034     drivers_cc13x0.aem3 : PINCC26XX.oem3 (.text:PIN_setConfig)
                  0000b0c8    00000034                         : PINCC26XX.oem3 (.text:PIN_setInterrupt)
                  0000b0fc    00000034                         : PowerCC26XX.oem3 (.text:Power_releaseConstraint)
                  0000b130    00000034     bmi160.obj (.text:bmi160_get_accel_data_rdy)
                  0000b164    00000034     bmi160.obj (.text:bmi160_get_if_mode)
                  0000b198    00000034     bmi160.obj (.text:bmi160_get_mag_manual_enable)
                  0000b1cc    00000034     bmi160.obj (.text:bmi160_get_mag_power_mode_stat)
                  0000b200    00000034     bmi160.obj (.text:bmi160_get_paging_enable)
                  0000b234    00000034     bmi160.obj (.text:bmi160_get_pullup_configuration)
                  0000b268    00000034     bmi160.obj (.text:bmi160_get_target_page)
                  0000b29c    00000034     rtsv7M3_T_le_eabi.lib : fs_tou_t2.obj (.text)
                  0000b2d0    00000034     tags-cc1310_pem3.oem3 (.text:ti_sysbios_BIOS_startFunc__I)
                  0000b304    00000034     rom_sysbios.aem3 : rom_sysbios.obj (.text:ti_sysbios_family_arm_cc26xx_Timer_initDevice__I)
                  0000b338    00000034                      : rom_sysbios.obj (.text:ti_sysbios_family_arm_m3_Timer_initDevice__I)
                  0000b36c    00000032                      : rom_sysbios.obj (.text:ti_sysbios_family_arm_cc26xx_Timer_setNextTick__E)
                  0000b39e    00000002     --HOLE-- [fill = 0]
                  0000b3a0    00000030     driverlib.lib : chipinfo.obj (.text:NOROM_ChipInfo_GetChipType)
                  0000b3d0    00000030                   : setup_rom.obj (.text:NOROM_SetupSetAonRtcSubSecInc)
                  0000b400    00000030     drivers_cc13x0.aem3 : PowerCC26XX.oem3 (.text:Power_setConstraint)
                  0000b430    00000030     bmi160_support.obj (.text:bmi160_i2c_burst_read)
                  0000b460    00000030     bmi160_support.obj (.text:bmi160_i2c_bus_read)
                  0000b490    00000030     bmi160_support.obj (.text:i2c_routine)
                  0000b4c0    00000030     drivers_cc13x0.aem3 : UARTCC26XX.oem3 (.text:readData2RingBuf)
                  0000b4f0    00000030     tags-cc1310_pem3.oem3 (.text:ti_sysbios_BIOS_atExitFunc__I)
                  0000b520    0000002e     rtsv7M3_T_le_eabi.lib : i_tofd_t2.obj (.text)
                  0000b54e    0000002e     tags-cc1310_pem3.oem3 (.text:ti_sysbios_rts_gnu_MemAlloc_alloc)
                  0000b57c    0000002c     driverlib.lib : ddi.obj (.text:NOROM_DDI32RegWrite)
                  0000b5a8    0000002c                   : osc.obj (.text:NOROM_OSCClockSourceGet)
                  0000b5d4    0000002c                   : setup_rom.obj (.text:NOROM_SetupGetTrimForRadcExtCfg)
                  0000b600    0000002c     drivers_cc13x0.aem3 : PINCC26XX.oem3 (.text:PINCC26XX_setMux)
                  0000b62c    0000002c     dpl_cc13x0.aem3 : SemaphoreP_tirtos.oem3 (.text:SemaphoreP_constructBinary)
                  0000b658    0000002c     rtsv7M3_T_le_eabi.lib : unlink.obj (.text)
                  0000b684    0000002c     rom_sysbios.aem3 : rom_sysbios.obj (.text:ti_sysbios_knl_Clock_getTicksUntilInterrupt__E)
                  0000b6b0    0000002a                      : rom_sysbios.obj (.text:xdc_runtime_System_putchar__I)
                  0000b6da    00000002     --HOLE-- [fill = 0]
                  0000b6dc    00000028     driverlib.lib : aon_batmon.obj (.text:NOROM_AONBatMonTemperatureGetDegC)
                  0000b704    00000028     drivers_cc13x0.aem3 : PowerCC26XX.oem3 (.text:Power_registerNotify)
                  0000b72c    00000028                         : SPICC26XXDMA.oem3 (.text:SPICC26XXDMA_flushFifos)
                  0000b754    00000028     driverlib.lib : adi.obj (.text:SafeHapiVoid)
                  0000b77c    00000028     bmi160.obj (.text:bmi160_read_reg)
                  0000b7a4    00000028     bmi160.obj (.text:bmi160_set_command_register)
                  0000b7cc    00000028     bmi160.obj (.text:bmi160_set_fifo_wm)
                  0000b7f4    00000028     bmi160.obj (.text:bmi160_set_mag_read_addr)
                  0000b81c    00000028     bmi160.obj (.text:bmi160_set_mag_write_addr)
                  0000b844    00000028     bmi160.obj (.text:bmi160_set_mag_write_data)
                  0000b86c    00000028     rtsv7M3_T_le_eabi.lib : lseek.obj (.text)
                  0000b894    00000028                           : write.obj (.text)
                  0000b8bc    00000024     bmi160.obj (.text:bmi160_fifo_data)
                  0000b8e0    00000024     bmi160.obj (.text:bmi160_write_reg)
                  0000b904    00000024     rtsv7M3_T_le_eabi.lib : u_tofs_t2.obj (.text)
                  0000b928    00000024     tags-cc1310_pem3.oem3 (.text:ti_sysbios_BIOS_registerRTSLock__I)
                  0000b94c    00000024     tags-cc1310_pem3.oem3 (.text:ti_sysbios_BIOS_removeRTSLock__I)
                  0000b970    00000024     rom_sysbios.aem3 : rom_sysbios.obj (.text:ti_sysbios_family_arm_cc26xx_Timer_getMaxTicks__E)
                  0000b994    00000024                      : rom_sysbios.obj (.text:ti_sysbios_family_arm_m3_Timer_Module_startup__E)
                  0000b9b8    00000024                      : rom_sysbios.obj (.text:ti_sysbios_family_arm_m3_Timer_postInit__I)
                  0000b9dc    00000024                      : rom_sysbios.obj (.text:ti_sysbios_family_arm_m3_Timer_startup__E)
                  0000ba00    00000024                      : rom_sysbios.obj (.text:xdc_runtime_System_vprintf__E)
                  0000ba24    00000022     drivers_cc13x0.aem3 : List.oem3 (.text:List_put)
                  0000ba46    00000002     --HOLE-- [fill = 0]
                  0000ba48    00000020     driverlib.lib : setup_rom.obj (.text:NOROM_SetupGetTrimForXoscHfCtl)
                  0000ba68    00000020     dpl_cc13x0.aem3 : PowerCC26XX_tirtos.oem3 (.text:PowerCC26XX_schedulerDisable)
                  0000ba88    00000020                     : PowerCC26XX_tirtos.oem3 (.text:PowerCC26XX_schedulerRestore)
                  0000baa8    00000020     drivers_cc13x0.aem3 : PowerCC26XX.oem3 (.text:Power_unregisterNotify)
                  0000bac8    00000020     tags-cc1310_pem3.oem3 (.text:ti_sysbios_BIOS_rtsLock__I)
                  0000bae8    00000020     rom_sysbios.aem3 : rom_sysbios.obj (.text:ti_sysbios_family_arm_cc26xx_Timer_dynamicStub__E)
                  0000bb08    00000020                      : rom_sysbios.obj (.text:ti_sysbios_knl_Clock_stop__E)
                  0000bb28    00000020                      : rom_sysbios.obj (.text:xdc_runtime_SysStd_abort__E)
                  0000bb48    0000001e     drivers_cc13x0.aem3 : PINCC26XX.oem3 (.text:PIN_close)
                  0000bb66    0000001e                         : PowerCC26XX.oem3 (.text:Power_getTransitionLatency)
                  0000bb84    0000001c     driverlib.lib : chipinfo.obj (.text:NOROM_ChipInfo_GetChipFamily)
                  0000bba0    0000001c                   : setup_rom.obj (.text:NOROM_SetupGetTrimForAmpcompTh2)
                  0000bbbc    0000001c                   : setup_rom.obj (.text:NOROM_SetupGetTrimForRcOscLfRtuneCtuneTrim)
                  0000bbd8    0000001c     drivers_cc13x0.aem3 : PINCC26XX.oem3 (.text:PINCC26XX_setIoCfgMux)
                  0000bbf4    0000001c                         : PINCC26XX.oem3 (.text:PIN_hwi)
                  0000bc10    0000001c     rom_sysbios.aem3 : rom_sysbios.obj (.text:ti_sysbios_family_arm_m3_Hwi_clearInterrupt__E)
                  0000bc2c    0000001c                      : rom_sysbios.obj (.text:ti_sysbios_family_arm_m3_Timer_stop__E)
                  0000bc48    0000001c                      : rom_sysbios.obj (.text:ti_sysbios_knl_Swi_construct2__E)
                  0000bc64    0000001a     tags-cc1310_pem3.oem3 (.text:free)
                  0000bc7e    0000001a     rtsv7M3_T_le_eabi.lib : memccpy.obj (.text)
                  0000bc98    0000001a     rom_sysbios.aem3 : rom_sysbios_config.obj (.text:xdc_runtime_System_printf__E)
                  0000bcb2    00000002     --HOLE-- [fill = 0]
                  0000bcb4    00000018     driverlib.lib : aon_rtc.obj (.text:NOROM_AONRTCCurrentCompareValueGet)
                  0000bccc    00000018                   : chipinfo.obj (.text:NOROM_ChipInfo_GetPackageType)
                  0000bce4    00000018                   : osc.obj (.text:NOROM_OSCHF_TurnOnXosc)
                  0000bcfc    00000018                   : setup_rom.obj (.text:NOROM_SetupGetTrimForAdcShModeEn)
                  0000bd14    00000018                   : setup_rom.obj (.text:NOROM_SetupGetTrimForAdcShVbufEn)
                  0000bd2c    00000018                   : setup_rom.obj (.text:NOROM_SetupGetTrimForAmpcompTh1)
                  0000bd44    00000018                   : setup_rom.obj (.text:NOROM_SetupGetTrimForDblrLoopFilterResetVoltage)
                  0000bd5c    00000018                   : setup_rom.obj (.text:NOROM_SetupGetTrimForRcOscLfIBiasTrim)
                  0000bd74    00000018                   : setup_rom.obj (.text:NOROM_SetupGetTrimForXoscLfRegulatorAndCmirrwrRatio)
                  0000bd8c    00000018     drivers_cc13x0.aem3 : PINCC26XX.oem3 (.text:PIN_getConfig)
                  0000bda4    00000018                         : PowerCC26XX.oem3 (.text:Power_idleFunc)
                  0000bdbc    00000018                         : UARTCC26XX.oem3 (.text:UARTCC26XX_init)
                  0000bdd4    00000018                         : UART.oem3 (.text:UART_Params_init)
                  0000bdec    00000018                         : PowerCC26XX.oem3 (.text:configureRFCoreClocks)
                  0000be04    00000018     rtsv7M3_T_le_eabi.lib : args_main.obj (.text)
                  0000be1c    00000018                           : ll_mul_t2.obj (.text)
                  0000be34    00000018                           : strcmp.obj (.text)
                  0000be4c    00000018     tags-cc1310_pem3.oem3 (.text:ti_sysbios_BIOS_rtsUnlock__I)
                  0000be64    00000018     tags-cc1310_pem3.oem3 (.text:ti_sysbios_family_arm_m3_Timer_Module__startupDone__F)
                  0000be7c    00000018     rom_sysbios.aem3 : rom_sysbios.obj (.text:ti_sysbios_knl_Swi_or__E)
                  0000be94    00000018     tags-cc1310_pem3.oem3 (.text:ti_sysbios_rom_cortexm_cc13xx_CC13xx_checkRevision__E)
                  0000beac    00000018     rom_sysbios.aem3 : rom_sysbios.obj (.text:xdc_runtime_Error_init__E)
                  0000bec4    00000016     drivers_cc13x0.aem3 : List.oem3 (.text:List_remove)
                  0000beda    00000016     driverlib.lib : chipinfo.obj (.text:NOROM_ThisLibraryIsFor_CC13x0_HwRev20AndLater_HaltIfViolated)
                  0000bef0    00000016     rtsv7M3_T_le_eabi.lib : strchr.obj (.text)
                  0000bf06    00000016                           : strcpy.obj (.text)
                  0000bf1c    00000016     tags-cc1310_pem3.oem3 (.text:ti_sysbios_BIOS_exitFunc__I)
                  0000bf32    00000002     --HOLE-- [fill = 0]
                  0000bf34    00000014     driverlib.lib : aon_rtc.obj (.text:NOROM_AONRTCCurrent64BitValueGet)
                  0000bf48    00000014     drivers_cc13x0.aem3 : SPI.oem3 (.text:SPI_Params_init)
                  0000bf5c    00000014     bmi160_support.obj (.text:bmi160_delay_ms)
                  0000bf70    00000014     rtsv7M3_T_le_eabi.lib : _lock.obj (.text)
                  0000bf84    00000014                           : strlen.obj (.text)
                  0000bf98    00000014     tags-cc1310_pem3.oem3 (.text:ti_sysbios_knl_Clock_doTick__I)
                  0000bfac    00000012     drivers_cc13x0.aem3 : RingBuf.oem3 (.text:RingBuf_construct)
                  0000bfbe    00000012     dpl_cc13x0.aem3 : SemaphoreP_tirtos.oem3 (.text:SemaphoreP_pend)
                  0000bfd0    00000012     rom_sysbios.aem3 : rom_sysbios.obj (.text:ti_sysbios_hal_Timer_Module_startup__E)
                  0000bfe2    00000012     tags-cc1310_pem3.oem3 (.text:xdc_runtime_Startup_exec__I)
                  0000bff4    00000010     dpl_cc13x0.aem3 : HwiP_tirtos.oem3 (.text:HwiP_Params_init)
                  0000c004    00000010     drivers_cc13x0.aem3 : I2C.oem3 (.text:I2C_Params_init)
                  0000c014    00000010     driverlib.lib : setup_rom.obj (.text:NOROM_SetupGetTrimForXoscHfFastStart)
                  0000c024    00000010                   : setup_rom.obj (.text:NOROM_SetupGetTrimForXoscHfIbiastherm)
                  0000c034    00000010     drivers_cc13x0.aem3 : PINCC26XX.oem3 (.text:PINCC26XX_getPinCount)
                  0000c044    00000010     dpl_cc13x0.aem3 : SwiP_tirtos.oem3 (.text:SwiP_Params_init)
                  0000c054    00000010     drivers_cc13x0.aem3 : I2CCC26XX.oem3 (.text:i2cPostNotify)
                  0000c064    00000010                         : UARTCC26XX.oem3 (.text:uartPostNotify)
                  0000c074    0000000e     driverlib.lib : vims.obj (.text:NOROM_VIMSModeGet)
                  0000c082    0000000e     drivers_cc13x0.aem3 : SPICC26XXDMA.oem3 (.text:SPICC26XXDMA_init)
                  0000c090    0000000e     rtsv7M3_T_le_eabi.lib : copy_decompress_none.obj (.text:decompress:none)
                  0000c09e    0000000e     rom_sysbios.aem3 : rom_sysbios.obj (.text:ti_sysbios_family_arm_cc26xx_TimestampProvider_get32__E)
                  0000c0ac    0000000c     drivers_cc13x0.aem3 : List.oem3 (.text:List_empty)
                  0000c0b8    0000000c     driverlib.lib : cpu.obj (.text:NOROM_CPUcpsid)
                  0000c0c4    0000000c                   : cpu.obj (.text:NOROM_CPUcpsie)
                  0000c0d0    0000000c                   : osc.obj (.text:NOROM_OSC_HPOSCRelativeFrequencyOffsetToRFCoreFormatConvert)
                  0000c0dc    0000000c     drivers_cc13x0.aem3 : PINCC26XX.oem3 (.text:PIN_registerIntCb)
                  0000c0e8    0000000c                         : PowerCC26XX.oem3 (.text:Power_getConstraintMask)
                  0000c0f4    0000000c                         : PowerCC26XX.oem3 (.text:Power_getDependencyCount)
                  0000c100    0000000c     rtsv7M3_T_le_eabi.lib : copy_zero_init.obj (.text:decompress:ZI)
                  0000c10c    0000000c     drivers_cc13x0.aem3 : SPICC26XXDMA.oem3 (.text:spiPostNotify)
                  0000c118    0000000c     rom_sysbios.aem3 : rom_sysbios.obj (.text:ti_sysbios_knl_Swi_getTrigger__E)
                  0000c124    0000000c     uart.obj (.text:uartRxCallback)
                  0000c130    0000000c     uart.obj (.text:uartTxCallback)
                  0000c13c    0000000c     tags-cc1310_pem3.oem3 (.text:xdc_runtime_Startup_reset__I)
                  0000c148    0000000c     rom_sysbios.aem3 : rom_sysbios.obj (.text:xdc_runtime_Startup_rtsDone__E)
                  0000c154    0000000c                      : rom_sysbios.obj (.text:xdc_runtime_SysStd_exit__E)
                  0000c160    0000000a     drivers_cc13x0.aem3 : I2CCC26XX.oem3 (.text:I2CCC26XX_init)
                  0000c16a    0000000a                         : I2C.oem3 (.text:I2C_transfer)
                  0000c174    0000000a                         : SPI.oem3 (.text:SPI_transfer)
                  0000c17e    0000000a                         : UART.oem3 (.text:UART_read)
                  0000c188    0000000a                         : UART.oem3 (.text:UART_write)
                  0000c192    0000000a                         : UDMACC26XX.oem3 (.text:UDMACC26XX_hwiIntFxn)
                  0000c19c    00000008                         : I2CCC26XX.oem3 (.text:I2CCC26XX_blockingCallback)
                  0000c1a4    00000008                         : SPICC26XXDMA.oem3 (.text:SPICC26XXDMA_transferCallback)
                  0000c1ac    00000008                         : UARTCC26XX.oem3 (.text:readSemCallback)
                  0000c1b4    00000008     rtsv7M3_T_le_eabi.lib : s_copysign.obj (.text)
                  0000c1bc    00000008     drivers_cc13x0.aem3 : UARTCC26XX.oem3 (.text:writeSemCallback)
                  0000c1c4    00000006     dpl_cc13x0.aem3 : ClockP_tirtos.oem3 (.text:ClockP_Params_init)
                  0000c1ca    00000006     drivers_cc13x0.aem3 : I2CCC26XX.oem3 (.text:I2CCC26XX_control)
                  0000c1d0    00000006     driverlib.lib : cpu.obj (.text:NOROM_CPUdelay)
                  0000c1d6    00000006     drivers_cc13x0.aem3 : UARTCC26XX.oem3 (.text:UARTCC26XX_readPolling)
                  0000c1dc    00000006                         : UARTCC26XX.oem3 (.text:UARTCC26XX_writePolling)
                  0000c1e2    00000004     dpl_cc13x0.aem3 : PowerCC26XX_tirtos.oem3 (.text:CPUwfi)
                  0000c1e6    00000004                     : ClockP_tirtos.oem3 (.text:ClockP_destruct)
                  0000c1ea    00000004                     : ClockP_tirtos.oem3 (.text:ClockP_getCpuFreq)
                  0000c1ee    00000004                     : ClockP_tirtos.oem3 (.text:ClockP_setTimeout)
                  0000c1f2    00000004                     : ClockP_tirtos.oem3 (.text:ClockP_start)
                  0000c1f6    00000004                     : ClockP_tirtos.oem3 (.text:ClockP_stop)
                  0000c1fa    00000004                     : HwiP_tirtos.oem3 (.text:HwiP_destruct)
                  0000c1fe    00000004                     : HwiP_tirtos.oem3 (.text:HwiP_disable)
                  0000c202    00000004                     : HwiP_tirtos.oem3 (.text:HwiP_disableInterrupt)
                  0000c206    00000004                     : HwiP_tirtos.oem3 (.text:HwiP_enableInterrupt)
                  0000c20a    00000004     drivers_cc13x0.aem3 : List.oem3 (.text:List_head)
                  0000c20e    00000004                         : List.oem3 (.text:List_next)
                  0000c212    00000004     dpl_cc13x0.aem3 : SemaphoreP_tirtos.oem3 (.text:SemaphoreP_destruct)
                  0000c216    00000004                     : SemaphoreP_tirtos.oem3 (.text:SemaphoreP_post)
                  0000c21a    00000004                     : SwiP_tirtos.oem3 (.text:SwiP_destruct)
                  0000c21e    00000004                     : SwiP_tirtos.oem3 (.text:SwiP_disable)
                  0000c222    00000004                     : SwiP_tirtos.oem3 (.text:SwiP_getTrigger)
                  0000c226    00000004                     : SwiP_tirtos.oem3 (.text:SwiP_or)
                  0000c22a    00000004                     : SwiP_tirtos.oem3 (.text:SwiP_post)
                  0000c22e    00000004     drivers_cc13x0.aem3 : PowerCC26XX.oem3 (.text:nopResourceHandler)
                  0000c232    00000004     radio_setup.obj (.text:rf_patch_cpe_genfsk)
                  0000c236    00000004     rom_sysbios.aem3 : rom_sysbios.obj (.text:ti_sysbios_family_arm_cc26xx_Timer_getCount64__E)
                  0000c23a    00000004                      : rom_sysbios.obj (.text:xdc_runtime_SysStd_putch__E)
                  0000c23e    00000004                      : rom_sysbios.obj (.text:xdc_runtime_SysStd_ready__E)
                  0000c242    00000004                      : rom_sysbios.obj (.text:xdc_runtime_System_printf_va__F)
                  0000c246    00000002     --HOLE-- [fill = 0]
                  0000c248    00000008     (.tramp.ti_sysbios_knl_Swi_destruct.1)
                  0000c250    00000008     (.tramp.ti_sysbios_knl_Semaphore_destruct.1)
                  0000c258    00000008     (.tramp.ti_sysbios_family_arm_m3_Hwi_disableFxn__E.1)
                  0000c260    00000008     (.tramp.ti_sysbios_family_arm_m3_Hwi_destruct.1)
                  0000c268    00000008     (.tramp.ti_sysbios_BIOS_getCpuFreq__E.1)
                  0000c270    00000008     (.tramp.ti_sysbios_knl_Clock_destruct.1)
                  0000c278    00000008     (.tramp.xdc_runtime_Startup_startMods__I.1)
                  0000c280    00000008     (.tramp.ti_sysbios_knl_Clock_logTick__E.1)
                  0000c288    00000008     (.tramp.ti_sysbios_knl_Swi_post__E.1)
                  0000c290    00000008     (.tramp.ti_sysbios_BIOS_RtsGateProxy_leave__E.1)
                  0000c298    00000008     (.tramp.xdc_runtime_Memory_free__E.1)
                  0000c2a0    00000008     (.tramp.ti_sysbios_knl_Swi_construct.1)
                  0000c2a8    00000008     (.tramp.ti_sysbios_BIOS_RtsGateProxy_enter__E.1)
                  0000c2b0    00000008     (.tramp.ti_sysbios_knl_Task_restore__E.1)
                  0000c2b8    00000008     (.tramp.xdc_runtime_Memory_alloc__E.1)
                  0000c2c0    00000008     (.tramp.ti_sysbios_BIOS_setThreadType__E.1)
                  0000c2c8    00000008     (.tramp.ti_sysbios_knl_Task_disable__E.1)
                  0000c2d0    00000008     (.tramp.ti_sysbios_knl_Swi_disable__E.1)
                  0000c2d8    00000008     (.tramp.ti_sysbios_family_arm_m3_Hwi_disableInterrupt__E.1)
                  0000c2e0    00000008     (.tramp.ti_sysbios_knl_Task_startup__E.1)
                  0000c2e8    00000008     (.tramp.ti_sysbios_knl_Swi_startup__E.1)
                  0000c2f0    00000008     (.tramp.ti_sysbios_hal_Hwi_startup__E.1)
                  0000c2f8    00000008     (.tramp.ti_sysbios_family_arm_cc26xx_Timer_startup__E.1)
                  0000c300    00000008     (.tramp.xdc_runtime_System_atexit__E.1)
                  0000c308    00000008     (.tramp.ti_sysbios_knl_Semaphore_post__E.1)
                  0000c310    00000008     (.tramp.ti_sysbios_knl_Semaphore_pend__E.1)
                  0000c318    00000008     (.tramp.ti_sysbios_family_arm_m3_Hwi_construct.1)
                  0000c320    00000008     (.tramp.ti_sysbios_knl_Swi_Params__init__S.1)
                  0000c328    00000008     (.tramp.ti_sysbios_family_arm_m3_Hwi_Params__init__S.1)
                  0000c330    00000008     (.tramp.ti_sysbios_family_arm_m3_Hwi_enableInterrupt__E.1)
                  0000c338    00000008     (.tramp.xdc_runtime_System_exit__E.1)
                  0000c340    00000008     (.tramp.xdc_runtime_Error_raiseX__E.1)
                  0000c348    00000008     (.tramp.ti_sysbios_knl_Clock_construct.1)
                  0000c350    00000008     (.tramp.ti_sysbios_knl_Clock_Params__init__S.1)
                  0000c358    00000008     (.tramp.ti_sysbios_knl_Clock_scheduleNextTick__E.1)
                  0000c360    00000008     (.tramp.ti_sysbios_knl_Clock_walkQueueDynamic__E.1)
                  0000c368    00000008     (.tramp.ti_sysbios_knl_Clock_TimerProxy_getCurrentTick__E.1)
                  0000c370    00000008     (.tramp.ti_sysbios_BIOS_start__E.1)
                  0000c378    00000008     (.tramp.xdc_runtime_System_abort__E.1)
                  0000c380    00000008     (.tramp.ti_sysbios_knl_Semaphore_construct.1)
                  0000c388    00000008     (.tramp.ti_sysbios_knl_Clock_start__E.1)
                  0000c390    00000008     (.tramp.ti_sysbios_knl_Clock_setTimeout__E.1)
                  0000c398    00000008     (.tramp.ti_sysbios_knl_Task_construct.1)
                  0000c3a0    00000008     (.tramp.ti_sysbios_knl_Task_Params__init__S.1)
                  0000c3a8    00000008     (.tramp.ti_sysbios_knl_Semaphore_create.1)
                  0000c3b0    00000008     (.tramp.ti_sysbios_knl_Semaphore_Params__init__S.1)
                  0000c3b8    00000008     (.tramp.ti_sysbios_knl_Mailbox_create.1)
                  0000c3c0    00000008     (.tramp.ti_sysbios_knl_Swi_restore__E.1)
                  0000c3c8    00000008     (.tramp.ti_sysbios_knl_Task_sleep__E.1)
                  0000c3d0    00000008     (.tramp.ti_sysbios_knl_Mailbox_post__E.1)
                  0000c3d8    00000008     (.tramp.xdc_runtime_Timestamp_get32__E.1)
                  0000c3e0    00000008     (.tramp.ti_sysbios_knl_Mailbox_pend__E.1)
                  0000c3e8    00000008     (.tramp.xdc_runtime_Timestamp_getFreq__E.1)
                  0000c3f0    00000008     (.tramp.ti_sysbios_family_arm_m3_Hwi_restoreFxn__E.1)

.cinit     0    0000c3f8    000003b0     
                  0000c3f8    0000023d     (.cinit..data.load) [load image, compression = lzss]
                  0000c635    00000028     (.cinit..data:ti_sysbios_family_arm_m3_Hwi_Module__state__V.load) [load image, compression = lzss]
                  0000c65d    00000021     (.cinit..data:ti_sysbios_knl_Task_Module__state__V.load) [load image, compression = lzss]
                  0000c67e    0000001f     (.cinit..data:ti_sysbios_BIOS_Module__state__V.load) [load image, compression = lzss]
                  0000c69d    0000001d     (.cinit..data:ti_sysbios_knl_Clock_Module__state__V.load) [load image, compression = lzss]
                  0000c6ba    0000000e     (.cinit..data:ti_sysbios_knl_Swi_Module__state__V.load) [load image, compression = lzss]
                  0000c6c8    0000000c     (__TI_handler_table)
                  0000c6d4    0000000b     (.cinit..data:ti_sysbios_family_arm_cc26xx_Timer_Module__state__V.load) [load image, compression = lzss]
                  0000c6df    00000001     --HOLE-- [fill = 0]
                  0000c6e0    00000008     (.cinit..TI.bound:dmaSpi0RxControlTableEntry.load) [load image, compression = zero_init]
                  0000c6e8    00000008     (.cinit..TI.bound:dmaSpi0TxControlTableEntry.load) [load image, compression = zero_init]
                  0000c6f0    00000008     (.cinit..TI.bound:dmaSpi1RxControlTableEntry.load) [load image, compression = zero_init]
                  0000c6f8    00000008     (.cinit..TI.bound:dmaSpi1TxControlTableEntry.load) [load image, compression = zero_init]
                  0000c700    00000008     (.cinit..bss.load) [load image, compression = zero_init]
                  0000c708    00000008     (.cinit..data:xdc_runtime_Memory_Module__state__V.load) [load image, compression = lzss]
                  0000c710    00000007     (.cinit..data:ti_sysbios_family_arm_cc26xx_TimestampProvider_Module__state__V.load) [load image, compression = lzss]
                  0000c717    00000007     (.cinit..data:xdc_runtime_Startup_Module__state__V.load) [load image, compression = lzss]
                  0000c71e    00000007     (.cinit..data:xdc_runtime_System_Module__state__V.load) [load image, compression = lzss]
                  0000c725    00000003     --HOLE-- [fill = 0]
                  0000c728    00000080     (__TI_cinit_table)

.init_array 
*          0    00000000    00000000     UNINITIALIZED

.ccfg      0    0001ffa8    00000058     
                  0001ffa8    00000058     ccfg.obj (.ccfg:retain)

.resetVecs 
*          0    00000000    0000003c     
                  00000000    0000003c     tags-cc1310_pem3.oem3 (.resetVecs)

.const:ti_sysbios_knl_Task_Object__PARAMS__C 
*          0    00001000    0000003c     
                  00001000    0000003c     tags-cc1310_pem3.oem3 (.const:ti_sysbios_knl_Task_Object__PARAMS__C)

.const:ti_sysbios_knl_Mailbox_Object__PARAMS__C 
*          0    0000103c    00000034     
                  0000103c    00000034     tags-cc1310_pem3.oem3 (.const:ti_sysbios_knl_Mailbox_Object__PARAMS__C)

.const:ti_sysbios_family_arm_m3_Hwi_Object__PARAMS__C 
*          0    00001070    00000030     
                  00001070    00000030     tags-cc1310_pem3.oem3 (.const:ti_sysbios_family_arm_m3_Hwi_Object__PARAMS__C)

.const:ti_sysbios_hal_Hwi_Object__PARAMS__C 
*          0    000010a0    0000002c     
                  000010a0    0000002c     tags-cc1310_pem3.oem3 (.const:ti_sysbios_hal_Hwi_Object__PARAMS__C)

.const:ti_sysbios_heaps_HeapMem_Module__FXNS__C 
*          0    000010cc    00000028     
                  000010cc    00000028     tags-cc1310_pem3.oem3 (.const:ti_sysbios_heaps_HeapMem_Module__FXNS__C)

.const:ti_sysbios_knl_Swi_Object__PARAMS__C 
*          0    000010f4    00000028     
                  000010f4    00000028     tags-cc1310_pem3.oem3 (.const:ti_sysbios_knl_Swi_Object__PARAMS__C)

.const:ti_sysbios_gates_GateHwi_Module__FXNS__C 
*          0    0000111c    00000024     
                  0000111c    00000024     tags-cc1310_pem3.oem3 (.const:ti_sysbios_gates_GateHwi_Module__FXNS__C)

.const:ti_sysbios_gates_GateMutex_Module__FXNS__C 
*          0    00001140    00000024     
                  00001140    00000024     tags-cc1310_pem3.oem3 (.const:ti_sysbios_gates_GateMutex_Module__FXNS__C)

.const:ti_sysbios_heaps_HeapMem_Object__PARAMS__C 
*          0    00001164    00000024     
                  00001164    00000024     tags-cc1310_pem3.oem3 (.const:ti_sysbios_heaps_HeapMem_Object__PARAMS__C)

.const:ti_sysbios_knl_Clock_Object__PARAMS__C 
*          0    00001188    00000024     
                  00001188    00000024     tags-cc1310_pem3.oem3 (.const:ti_sysbios_knl_Clock_Object__PARAMS__C)

.const:ti_sysbios_knl_Semaphore_Object__PARAMS__C 
*          0    000011ac    00000024     
                  000011ac    00000024     tags-cc1310_pem3.oem3 (.const:ti_sysbios_knl_Semaphore_Object__PARAMS__C)

.const:ti_sysbios_family_arm_m3_Hwi_Object__DESC__C 
*          0    000011d0    00000020     
                  000011d0    00000020     tags-cc1310_pem3.oem3 (.const:ti_sysbios_family_arm_m3_Hwi_Object__DESC__C)

.const:ti_sysbios_gates_GateHwi_Object__DESC__C 
*          0    000011f0    00000020     
                  000011f0    00000020     tags-cc1310_pem3.oem3 (.const:ti_sysbios_gates_GateHwi_Object__DESC__C)

.const:ti_sysbios_gates_GateMutex_Object__DESC__C 
*          0    00001210    00000020     
                  00001210    00000020     tags-cc1310_pem3.oem3 (.const:ti_sysbios_gates_GateMutex_Object__DESC__C)

.const:ti_sysbios_hal_Hwi_Object__DESC__C 
*          0    00001230    00000020     
                  00001230    00000020     tags-cc1310_pem3.oem3 (.const:ti_sysbios_hal_Hwi_Object__DESC__C)

.const:ti_sysbios_heaps_HeapMem_Object__DESC__C 
*          0    00001250    00000020     
                  00001250    00000020     tags-cc1310_pem3.oem3 (.const:ti_sysbios_heaps_HeapMem_Object__DESC__C)

.const:ti_sysbios_knl_Clock_Object__DESC__C 
*          0    00001270    00000020     
                  00001270    00000020     tags-cc1310_pem3.oem3 (.const:ti_sysbios_knl_Clock_Object__DESC__C)

.const:ti_sysbios_knl_Mailbox_Object__DESC__C 
*          0    00001290    00000020     
                  00001290    00000020     tags-cc1310_pem3.oem3 (.const:ti_sysbios_knl_Mailbox_Object__DESC__C)

.const:ti_sysbios_knl_Queue_Object__DESC__C 
*          0    000012b0    00000020     
                  000012b0    00000020     tags-cc1310_pem3.oem3 (.const:ti_sysbios_knl_Queue_Object__DESC__C)

.const:ti_sysbios_knl_Semaphore_Object__DESC__C 
*          0    000012d0    00000020     
                  000012d0    00000020     tags-cc1310_pem3.oem3 (.const:ti_sysbios_knl_Semaphore_Object__DESC__C)

.const:ti_sysbios_knl_Swi_Object__DESC__C 
*          0    000012f0    00000020     
                  000012f0    00000020     tags-cc1310_pem3.oem3 (.const:ti_sysbios_knl_Swi_Object__DESC__C)

.const:ti_sysbios_knl_Task_Object__DESC__C 
*          0    00001310    00000020     
                  00001310    00000020     tags-cc1310_pem3.oem3 (.const:ti_sysbios_knl_Task_Object__DESC__C)

.const:ti_sysbios_gates_GateHwi_Object__PARAMS__C 
*          0    00001330    00000018     
                  00001330    00000018     tags-cc1310_pem3.oem3 (.const:ti_sysbios_gates_GateHwi_Object__PARAMS__C)

.const:ti_sysbios_gates_GateMutex_Object__PARAMS__C 
*          0    00001348    00000018     
                  00001348    00000018     tags-cc1310_pem3.oem3 (.const:ti_sysbios_gates_GateMutex_Object__PARAMS__C)

.const:ti_sysbios_knl_Queue_Object__PARAMS__C 
*          0    00001360    00000018     
                  00001360    00000018     tags-cc1310_pem3.oem3 (.const:ti_sysbios_knl_Queue_Object__PARAMS__C)

.const:ti_sysbios_knl_Idle_funcList__C 
*          0    00001378    00000008     
                  00001378    00000008     tags-cc1310_pem3.oem3 (.const:ti_sysbios_knl_Idle_funcList__C)

.const:ti_sysbios_family_arm_cc26xx_Timer_startupNeeded__C 
*          0    00001384    00000004     
                  00001384    00000004     tags-cc1310_pem3.oem3 (.const:ti_sysbios_family_arm_cc26xx_Timer_startupNeeded__C)

.const:ti_sysbios_family_arm_m3_Hwi_E_alreadyDefined__C 
*          0    00001388    00000004     
                  00001388    00000004     tags-cc1310_pem3.oem3 (.const:ti_sysbios_family_arm_m3_Hwi_E_alreadyDefined__C)

.const:ti_sysbios_family_arm_m3_Hwi_E_hwiLimitExceeded__C 
*          0    0000138c    00000004     
                  0000138c    00000004     tags-cc1310_pem3.oem3 (.const:ti_sysbios_family_arm_m3_Hwi_E_hwiLimitExceeded__C)

.const:ti_sysbios_family_arm_m3_Hwi_NUM_INTERRUPTS__C 
*          0    00001390    00000004     
                  00001390    00000004     tags-cc1310_pem3.oem3 (.const:ti_sysbios_family_arm_m3_Hwi_NUM_INTERRUPTS__C)

.const:ti_sysbios_family_arm_m3_Hwi_Object__count__C 
*          0    00001394    00000004     
                  00001394    00000004     tags-cc1310_pem3.oem3 (.const:ti_sysbios_family_arm_m3_Hwi_Object__count__C)

.const:ti_sysbios_family_arm_m3_Hwi_Object__table__C 
*          0    00001398    00000004     
                  00001398    00000004     tags-cc1310_pem3.oem3 (.const:ti_sysbios_family_arm_m3_Hwi_Object__table__C)

.const:ti_sysbios_family_arm_m3_Hwi_ccr__C 
*          0    0000139c    00000004     
                  0000139c    00000004     tags-cc1310_pem3.oem3 (.const:ti_sysbios_family_arm_m3_Hwi_ccr__C)

.const:ti_sysbios_family_arm_m3_Hwi_excHandlerFunc__C 
*          0    000013a0    00000004     
                  000013a0    00000004     tags-cc1310_pem3.oem3 (.const:ti_sysbios_family_arm_m3_Hwi_excHandlerFunc__C)

.const:ti_sysbios_family_arm_m3_Hwi_nullIsrFunc__C 
*          0    000013a4    00000004     
                  000013a4    00000004     tags-cc1310_pem3.oem3 (.const:ti_sysbios_family_arm_m3_Hwi_nullIsrFunc__C)

.const:ti_sysbios_family_arm_m3_Hwi_numSparseInterrupts__C 
*          0    000013a8    00000004     
                  000013a8    00000004     tags-cc1310_pem3.oem3 (.const:ti_sysbios_family_arm_m3_Hwi_numSparseInterrupts__C)

.const:ti_sysbios_family_arm_m3_Hwi_priGroup__C 
*          0    000013ac    00000004     
                  000013ac    00000004     tags-cc1310_pem3.oem3 (.const:ti_sysbios_family_arm_m3_Hwi_priGroup__C)

.const:ti_sysbios_family_arm_m3_TaskSupport_stackAlignment__C 
*          0    000013b0    00000004     
                  000013b0    00000004     tags-cc1310_pem3.oem3 (.const:ti_sysbios_family_arm_m3_TaskSupport_stackAlignment__C)

.const:ti_sysbios_heaps_HeapMem_E_memory__C 
*          0    000013b4    00000004     
                  000013b4    00000004     tags-cc1310_pem3.oem3 (.const:ti_sysbios_heaps_HeapMem_E_memory__C)

.const:ti_sysbios_heaps_HeapMem_Module__gateObj__C 
*          0    000013b8    00000004     
                  000013b8    00000004     tags-cc1310_pem3.oem3 (.const:ti_sysbios_heaps_HeapMem_Module__gateObj__C)

.const:ti_sysbios_heaps_HeapMem_Object__count__C 
*          0    000013bc    00000004     
                  000013bc    00000004     tags-cc1310_pem3.oem3 (.const:ti_sysbios_heaps_HeapMem_Object__count__C)

.const:ti_sysbios_heaps_HeapMem_Object__table__C 
*          0    000013c0    00000004     
                  000013c0    00000004     tags-cc1310_pem3.oem3 (.const:ti_sysbios_heaps_HeapMem_Object__table__C)

.const:ti_sysbios_heaps_HeapMem_reqAlign__C 
*          0    000013c4    00000004     
                  000013c4    00000004     tags-cc1310_pem3.oem3 (.const:ti_sysbios_heaps_HeapMem_reqAlign__C)

.const:ti_sysbios_knl_Clock_serviceMargin__C 
*          0    000013c8    00000004     
                  000013c8    00000004     tags-cc1310_pem3.oem3 (.const:ti_sysbios_knl_Clock_serviceMargin__C)

.const:ti_sysbios_knl_Mailbox_Object__count__C 
*          0    000013cc    00000004     
                  000013cc    00000004     tags-cc1310_pem3.oem3 (.const:ti_sysbios_knl_Mailbox_Object__count__C)

.const:ti_sysbios_knl_Mailbox_Object__table__C 
*          0    000013d0    00000004     
                  000013d0    00000004     tags-cc1310_pem3.oem3 (.const:ti_sysbios_knl_Mailbox_Object__table__C)

.const:ti_sysbios_knl_Mailbox_maxTypeAlign__C 
*          0    000013d4    00000004     
                  000013d4    00000004     tags-cc1310_pem3.oem3 (.const:ti_sysbios_knl_Mailbox_maxTypeAlign__C)

.const:ti_sysbios_knl_Queue_Object__count__C 
*          0    000013d8    00000004     
                  000013d8    00000004     tags-cc1310_pem3.oem3 (.const:ti_sysbios_knl_Queue_Object__count__C)

.const:ti_sysbios_knl_Queue_Object__table__C 
*          0    000013dc    00000004     
                  000013dc    00000004     tags-cc1310_pem3.oem3 (.const:ti_sysbios_knl_Queue_Object__table__C)

.const:ti_sysbios_knl_Swi_Object__count__C 
*          0    000013e0    00000004     
                  000013e0    00000004     tags-cc1310_pem3.oem3 (.const:ti_sysbios_knl_Swi_Object__count__C)

.const:ti_sysbios_knl_Swi_Object__table__C 
*          0    000013e4    00000004     
                  000013e4    00000004     tags-cc1310_pem3.oem3 (.const:ti_sysbios_knl_Swi_Object__table__C)

.const:ti_sysbios_knl_Swi_numPriorities__C 
*          0    000013e8    00000004     
                  000013e8    00000004     tags-cc1310_pem3.oem3 (.const:ti_sysbios_knl_Swi_numPriorities__C)

.const:ti_sysbios_knl_Task_Object__count__C 
*          0    000013ec    00000004     
                  000013ec    00000004     tags-cc1310_pem3.oem3 (.const:ti_sysbios_knl_Task_Object__count__C)

.const:ti_sysbios_knl_Task_Object__table__C 
*          0    000013f0    00000004     
                  000013f0    00000004     tags-cc1310_pem3.oem3 (.const:ti_sysbios_knl_Task_Object__table__C)

.const:ti_sysbios_knl_Task_allBlockedFunc__C 
*          0    000013f4    00000004     
                  000013f4    00000004     tags-cc1310_pem3.oem3 (.const:ti_sysbios_knl_Task_allBlockedFunc__C)

.const:ti_sysbios_knl_Task_defaultStackHeap__C 
*          0    000013f8    00000004     
                  000013f8    00000004     tags-cc1310_pem3.oem3 (.const:ti_sysbios_knl_Task_defaultStackHeap__C)

.const:ti_sysbios_knl_Task_defaultStackSize__C 
*          0    000013fc    00000004     
                  000013fc    00000004     tags-cc1310_pem3.oem3 (.const:ti_sysbios_knl_Task_defaultStackSize__C)

.const:ti_sysbios_knl_Task_numConstructedTasks__C 
*          0    00001400    00000004     
                  00001400    00000004     tags-cc1310_pem3.oem3 (.const:ti_sysbios_knl_Task_numConstructedTasks__C)

.const:ti_sysbios_family_arm_cc26xx_Timer_Module__id__C 
*          0    00001406    00000002     
                  00001406    00000002     tags-cc1310_pem3.oem3 (.const:ti_sysbios_family_arm_cc26xx_Timer_Module__id__C)

.const:ti_sysbios_family_arm_cc26xx_TimestampProvider_useClockTimer__C 
*          0    00001408    00000002     
                  00001408    00000002     tags-cc1310_pem3.oem3 (.const:ti_sysbios_family_arm_cc26xx_TimestampProvider_useClockTimer__C)

.const:ti_sysbios_family_arm_m3_Hwi_Module__id__C 
*          0    0000140a    00000002     
                  0000140a    00000002     tags-cc1310_pem3.oem3 (.const:ti_sysbios_family_arm_m3_Hwi_Module__id__C)

.const:ti_sysbios_gates_GateHwi_Module__id__C 
*          0    0000140c    00000002     
                  0000140c    00000002     tags-cc1310_pem3.oem3 (.const:ti_sysbios_gates_GateHwi_Module__id__C)

.const:ti_sysbios_gates_GateMutex_Module__id__C 
*          0    0000140e    00000002     
                  0000140e    00000002     tags-cc1310_pem3.oem3 (.const:ti_sysbios_gates_GateMutex_Module__id__C)

.const:ti_sysbios_heaps_HeapMem_Module__id__C 
*          0    00001410    00000002     
                  00001410    00000002     tags-cc1310_pem3.oem3 (.const:ti_sysbios_heaps_HeapMem_Module__id__C)

.const:ti_sysbios_knl_Task_initStackFlag__C 
*          0    00001412    00000002     
                  00001412    00000002     tags-cc1310_pem3.oem3 (.const:ti_sysbios_knl_Task_initStackFlag__C)

.const:ti_sysbios_knl_Clock_tickMode__C 
*          0    00001414    00000001     
                  00001414    00000001     tags-cc1310_pem3.oem3 (.const:ti_sysbios_knl_Clock_tickMode__C)

.const:xdc_runtime_Startup_firstFxns__C 
*          0    00001418    00000008     
                  00001418    00000008     tags-cc1310_pem3.oem3 (.const:xdc_runtime_Startup_firstFxns__C)

.const:xdc_runtime_Startup_lastFxns__C 
*          0    00001420    00000008     
                  00001420    00000008     tags-cc1310_pem3.oem3 (.const:xdc_runtime_Startup_lastFxns__C)

.const:xdc_runtime_Assert_E_assertFailed__C 
*          0    00001428    00000004     
                  00001428    00000004     tags-cc1310_pem3.oem3 (.const:xdc_runtime_Assert_E_assertFailed__C)

.const:xdc_runtime_Error_E_memory__C 
*          0    0000142c    00000004     
                  0000142c    00000004     tags-cc1310_pem3.oem3 (.const:xdc_runtime_Error_E_memory__C)

.const:xdc_runtime_Error_policyFxn__C 
*          0    00001430    00000004     
                  00001430    00000004     tags-cc1310_pem3.oem3 (.const:xdc_runtime_Error_policyFxn__C)

.const:xdc_runtime_IGateProvider_Interface__BASE__C 
*          0    00001434    00000004     
                  00001434    00000004     tags-cc1310_pem3.oem3 (.const:xdc_runtime_IGateProvider_Interface__BASE__C)

.const:xdc_runtime_IHeap_Interface__BASE__C 
*          0    00001438    00000004     
                  00001438    00000004     tags-cc1310_pem3.oem3 (.const:xdc_runtime_IHeap_Interface__BASE__C)

.const:xdc_runtime_IModule_Interface__BASE__C 
*          0    0000143c    00000004     
                  0000143c    00000004     tags-cc1310_pem3.oem3 (.const:xdc_runtime_IModule_Interface__BASE__C)

.const:xdc_runtime_Main_Module__diagsEnabled__C 
*          0    00001440    00000004     
                  00001440    00000004     tags-cc1310_pem3.oem3 (.const:xdc_runtime_Main_Module__diagsEnabled__C)

.const:xdc_runtime_Main_Module__diagsIncluded__C 
*          0    00001444    00000004     
                  00001444    00000004     tags-cc1310_pem3.oem3 (.const:xdc_runtime_Main_Module__diagsIncluded__C)

.const:xdc_runtime_Main_Module__diagsMask__C 
*          0    00001448    00000004     
                  00001448    00000004     tags-cc1310_pem3.oem3 (.const:xdc_runtime_Main_Module__diagsMask__C)

.const:xdc_runtime_Memory_defaultHeapInstance__C 
*          0    0000144c    00000004     
                  0000144c    00000004     tags-cc1310_pem3.oem3 (.const:xdc_runtime_Memory_defaultHeapInstance__C)

.const:xdc_runtime_Startup_execImpl__C 
*          0    00001450    00000004     
                  00001450    00000004     tags-cc1310_pem3.oem3 (.const:xdc_runtime_Startup_execImpl__C)

.const:xdc_runtime_Startup_maxPasses__C 
*          0    00001454    00000004     
                  00001454    00000004     tags-cc1310_pem3.oem3 (.const:xdc_runtime_Startup_maxPasses__C)

.const:xdc_runtime_Startup_sfxnRts__C 
*          0    00001458    00000004     
                  00001458    00000004     tags-cc1310_pem3.oem3 (.const:xdc_runtime_Startup_sfxnRts__C)

.const:xdc_runtime_Startup_sfxnTab__C 
*          0    0000145c    00000004     
                  0000145c    00000004     tags-cc1310_pem3.oem3 (.const:xdc_runtime_Startup_sfxnTab__C)

.const:xdc_runtime_Startup_startModsFxn__C 
*          0    00001460    00000004     
                  00001460    00000004     tags-cc1310_pem3.oem3 (.const:xdc_runtime_Startup_startModsFxn__C)

.const:xdc_runtime_SysCallback_abortFxn__C 
*          0    00001464    00000004     
                  00001464    00000004     tags-cc1310_pem3.oem3 (.const:xdc_runtime_SysCallback_abortFxn__C)

.const:xdc_runtime_SysCallback_exitFxn__C 
*          0    00001468    00000004     
                  00001468    00000004     tags-cc1310_pem3.oem3 (.const:xdc_runtime_SysCallback_exitFxn__C)

.const:xdc_runtime_System_abortFxn__C 
*          0    0000146c    00000004     
                  0000146c    00000004     tags-cc1310_pem3.oem3 (.const:xdc_runtime_System_abortFxn__C)

.const:xdc_runtime_System_exitFxn__C 
*          0    00001470    00000004     
                  00001470    00000004     tags-cc1310_pem3.oem3 (.const:xdc_runtime_System_exitFxn__C)

.const:xdc_runtime_System_maxAtexitHandlers__C 
*          0    00001474    00000004     
                  00001474    00000004     tags-cc1310_pem3.oem3 (.const:xdc_runtime_System_maxAtexitHandlers__C)

.const:xdc_runtime_Text_charTab__C 
*          0    00001478    00000004     
                  00001478    00000004     tags-cc1310_pem3.oem3 (.const:xdc_runtime_Text_charTab__C)

.const:xdc_runtime_Text_nameEmpty__C 
*          0    0000147c    00000004     
                  0000147c    00000004     tags-cc1310_pem3.oem3 (.const:xdc_runtime_Text_nameEmpty__C)

.const:xdc_runtime_Text_nameStatic__C 
*          0    00001480    00000004     
                  00001480    00000004     tags-cc1310_pem3.oem3 (.const:xdc_runtime_Text_nameStatic__C)

.const:xdc_runtime_Text_nameUnknown__C 
*          0    00001484    00000004     
                  00001484    00000004     tags-cc1310_pem3.oem3 (.const:xdc_runtime_Text_nameUnknown__C)

.const:xdc_runtime_Main_Module__id__C 
*          0    00001488    00000002     
                  00001488    00000002     tags-cc1310_pem3.oem3 (.const:xdc_runtime_Main_Module__id__C)

.const:xdc_runtime_Memory_Module__id__C 
*          0    0000148a    00000002     
                  0000148a    00000002     tags-cc1310_pem3.oem3 (.const:xdc_runtime_Memory_Module__id__C)

.const:xdc_runtime_Text_charCnt__C 
*          0    0000148c    00000002     
                  0000148c    00000002     tags-cc1310_pem3.oem3 (.const:xdc_runtime_Text_charCnt__C)

.const:xdc_runtime_Text_isLoaded__C 
*          0    0000148e    00000002     
                  0000148e    00000002     tags-cc1310_pem3.oem3 (.const:xdc_runtime_Text_isLoaded__C)

.const:xdc_runtime_Error_policy__C 
*          0    00001490    00000001     
                  00001490    00000001     tags-cc1310_pem3.oem3 (.const:xdc_runtime_Error_policy__C)

.const:ti_sysbios_rom_ROM_AONRTCChannelEnable 
*          0    00001494    00000004     
                  00001494    00000004     tags-cc1310_pem3.oem3 (.const:ti_sysbios_rom_ROM_AONRTCChannelEnable)

.const:ti_sysbios_rom_ROM_AONRTCCompareValueSet 
*          0    00001498    00000004     
                  00001498    00000004     tags-cc1310_pem3.oem3 (.const:ti_sysbios_rom_ROM_AONRTCCompareValueSet)

.const:ti_sysbios_rom_ROM_AONRTCCurrentCompareValueGet 
*          0    0000149c    00000004     
                  0000149c    00000004     tags-cc1310_pem3.oem3 (.const:ti_sysbios_rom_ROM_AONRTCCurrentCompareValueGet)

.const:ti_sysbios_rom_ROM_AONRTCEventClear 
*          0    000014a0    00000004     
                  000014a0    00000004     tags-cc1310_pem3.oem3 (.const:ti_sysbios_rom_ROM_AONRTCEventClear)

.const:ti_sysbios_rom_ROM_ti_sysbios_family_arm_cc26xx_Timer_getCount64__E 
*          0    000014a4    00000004     
                  000014a4    00000004     tags-cc1310_pem3.oem3 (.const:ti_sysbios_rom_ROM_ti_sysbios_family_arm_cc26xx_Timer_getCount64__E)

.const:ti_sysbios_rom_ROM_ti_sysbios_family_arm_cc26xx_Timer_getCurrentTick__E 
*          0    000014a8    00000004     
                  000014a8    00000004     tags-cc1310_pem3.oem3 (.const:ti_sysbios_rom_ROM_ti_sysbios_family_arm_cc26xx_Timer_getCurrentTick__E)

.const:ti_sysbios_rom_ROM_ti_sysbios_family_arm_cc26xx_Timer_getMaxTicks__E 
*          0    000014ac    00000004     
                  000014ac    00000004     tags-cc1310_pem3.oem3 (.const:ti_sysbios_rom_ROM_ti_sysbios_family_arm_cc26xx_Timer_getMaxTicks__E)

.const:ti_sysbios_rom_ROM_ti_sysbios_family_arm_cc26xx_Timer_initDevice__I 
*          0    000014b0    00000004     
                  000014b0    00000004     tags-cc1310_pem3.oem3 (.const:ti_sysbios_rom_ROM_ti_sysbios_family_arm_cc26xx_Timer_initDevice__I)

.const:ti_sysbios_rom_ROM_ti_sysbios_family_arm_cc26xx_Timer_setNextTick__E 
*          0    000014b4    00000004     
                  000014b4    00000004     tags-cc1310_pem3.oem3 (.const:ti_sysbios_rom_ROM_ti_sysbios_family_arm_cc26xx_Timer_setNextTick__E)

.const:ti_sysbios_rom_ROM_ti_sysbios_family_arm_cc26xx_Timer_setThreshold__I 
*          0    000014b8    00000004     
                  000014b8    00000004     tags-cc1310_pem3.oem3 (.const:ti_sysbios_rom_ROM_ti_sysbios_family_arm_cc26xx_Timer_setThreshold__I)

.const:ti_sysbios_rom_ROM_ti_sysbios_family_arm_cc26xx_Timer_start__E 
*          0    000014bc    00000004     
                  000014bc    00000004     tags-cc1310_pem3.oem3 (.const:ti_sysbios_rom_ROM_ti_sysbios_family_arm_cc26xx_Timer_start__E)

.const:ti_sysbios_rom_ROM_ti_sysbios_family_arm_cc26xx_TimestampProvider_get32__E 
*          0    000014c0    00000004     
                  000014c0    00000004     tags-cc1310_pem3.oem3 (.const:ti_sysbios_rom_ROM_ti_sysbios_family_arm_cc26xx_TimestampProvider_get32__E)

.const:ti_sysbios_rom_ROM_xdc_runtime_Startup_getState__I 
*          0    000014c4    00000004     
                  000014c4    00000004     tags-cc1310_pem3.oem3 (.const:ti_sysbios_rom_ROM_xdc_runtime_Startup_getState__I)

.const:ti_sysbios_rom_ROM_xdc_runtime_System_SupportProxy_abort__E 
*          0    000014c8    00000004     
                  000014c8    00000004     tags-cc1310_pem3.oem3 (.const:ti_sysbios_rom_ROM_xdc_runtime_System_SupportProxy_abort__E)

.const:ti_sysbios_rom_ROM_xdc_runtime_System_SupportProxy_exit__E 
*          0    000014cc    00000004     
                  000014cc    00000004     tags-cc1310_pem3.oem3 (.const:ti_sysbios_rom_ROM_xdc_runtime_System_SupportProxy_exit__E)

.const:ti_sysbios_gates_GateMutex_Instance_State_sem__O 
*          0    000014d0    00000004     
                  000014d0    00000004     tags-cc1310_pem3.oem3 (.const:ti_sysbios_gates_GateMutex_Instance_State_sem__O)

.const:ti_sysbios_knl_Clock_Module_State_clockQ__O 
*          0    000014d4    00000004     
                  000014d4    00000004     tags-cc1310_pem3.oem3 (.const:ti_sysbios_knl_Clock_Module_State_clockQ__O)

.const:ti_sysbios_knl_Mailbox_Instance_State_dataQue__O 
*          0    000014d8    00000004     
                  000014d8    00000004     tags-cc1310_pem3.oem3 (.const:ti_sysbios_knl_Mailbox_Instance_State_dataQue__O)

.const:ti_sysbios_knl_Mailbox_Instance_State_dataSem__O 
*          0    000014dc    00000004     
                  000014dc    00000004     tags-cc1310_pem3.oem3 (.const:ti_sysbios_knl_Mailbox_Instance_State_dataSem__O)

.const:ti_sysbios_knl_Mailbox_Instance_State_freeQue__O 
*          0    000014e0    00000004     
                  000014e0    00000004     tags-cc1310_pem3.oem3 (.const:ti_sysbios_knl_Mailbox_Instance_State_freeQue__O)

.const:ti_sysbios_knl_Mailbox_Instance_State_freeSem__O 
*          0    000014e4    00000004     
                  000014e4    00000004     tags-cc1310_pem3.oem3 (.const:ti_sysbios_knl_Mailbox_Instance_State_freeSem__O)

.const:ti_sysbios_knl_Semaphore_Instance_State_pendQ__O 
*          0    000014e8    00000004     
                  000014e8    00000004     tags-cc1310_pem3.oem3 (.const:ti_sysbios_knl_Semaphore_Instance_State_pendQ__O)

.const:ti_sysbios_knl_Task_Module_State_inactiveQ__O 
*          0    000014ec    00000004     
                  000014ec    00000004     tags-cc1310_pem3.oem3 (.const:ti_sysbios_knl_Task_Module_State_inactiveQ__O)

.vecs      0    20000000    000000c8     NOLOAD SECTION
                  20000000    000000c8     tags-cc1310_pem3.oem3 (.vecs)

.data:ti_sysbios_knl_Task_Module__state__V 
*          0    20000100    00000044     UNINITIALIZED
                  20000100    00000044     tags-cc1310_pem3.oem3 (.data:ti_sysbios_knl_Task_Module__state__V)

.data:ti_sysbios_family_arm_m3_Hwi_Module__state__V 
*          0    20000144    00000034     UNINITIALIZED
                  20000144    00000034     tags-cc1310_pem3.oem3 (.data:ti_sysbios_family_arm_m3_Hwi_Module__state__V)

.data:ti_sysbios_knl_Clock_Module__state__V 
*          0    20000178    0000002c     UNINITIALIZED
                  20000178    0000002c     tags-cc1310_pem3.oem3 (.data:ti_sysbios_knl_Clock_Module__state__V)

.data:ti_sysbios_BIOS_Module__state__V 
*          0    200001a4    00000024     UNINITIALIZED
                  200001a4    00000024     tags-cc1310_pem3.oem3 (.data:ti_sysbios_BIOS_Module__state__V)

.data:ti_sysbios_knl_Swi_Module__state__V 
*          0    200001c8    0000001c     UNINITIALIZED
                  200001c8    0000001c     tags-cc1310_pem3.oem3 (.data:ti_sysbios_knl_Swi_Module__state__V)

.data:ti_sysbios_family_arm_cc26xx_Timer_Module__state__V 
*          0    200001e4    00000008     UNINITIALIZED
                  200001e4    00000008     tags-cc1310_pem3.oem3 (.data:ti_sysbios_family_arm_cc26xx_Timer_Module__state__V)

.data:ti_sysbios_family_arm_cc26xx_TimestampProvider_Module__state__V 
*          0    200001ec    00000004     UNINITIALIZED
                  200001ec    00000004     tags-cc1310_pem3.oem3 (.data:ti_sysbios_family_arm_cc26xx_TimestampProvider_Module__state__V)

.data:xdc_runtime_Startup_Module__state__V 
*          0    200001f0    00000008     UNINITIALIZED
                  200001f0    00000008     tags-cc1310_pem3.oem3 (.data:xdc_runtime_Startup_Module__state__V)

.data:xdc_runtime_System_Module__state__V 
*          0    200001f8    00000008     UNINITIALIZED
                  200001f8    00000008     tags-cc1310_pem3.oem3 (.data:xdc_runtime_System_Module__state__V)

.data:xdc_runtime_Memory_Module__state__V 
*          0    20000200    00000004     UNINITIALIZED
                  20000200    00000004     tags-cc1310_pem3.oem3 (.data:xdc_runtime_Memory_Module__state__V)

.TI.bound:dmaSpi0RxControlTableEntry 
*          0    20000430    00000010     UNINITIALIZED
                  20000430    00000010     drivers_cc13x0.aem3 : SPICC26XXDMA.oem3 (.TI.bound:dmaSpi0RxControlTableEntry)

.TI.bound:dmaSpi0TxControlTableEntry 
*          0    20000440    00000010     UNINITIALIZED
                  20000440    00000010     drivers_cc13x0.aem3 : SPICC26XXDMA.oem3 (.TI.bound:dmaSpi0TxControlTableEntry)

.TI.bound:dmaSpi1RxControlTableEntry 
*          0    20000500    00000010     UNINITIALIZED
                  20000500    00000010     drivers_cc13x0.aem3 : SPICC26XXDMA.oem3 (.TI.bound:dmaSpi1RxControlTableEntry)

.TI.bound:dmaSpi1TxControlTableEntry 
*          0    20000510    00000010     UNINITIALIZED
                  20000510    00000010     drivers_cc13x0.aem3 : SPICC26XXDMA.oem3 (.TI.bound:dmaSpi1TxControlTableEntry)

.bss       0    20000520    000033c8     UNINITIALIZED
                  20000520    00000c00     (.common:buffers)
                  20001120    00000800     (.common:ti_sysbios_heaps_HeapMem_Instance_State_0_buf__A)
                  20001920    00000400     i2c_sensors.obj (.bss:testTaskStack)
                  20001d20    0000036c     (.common:accel_fifo)
                  2000208c    0000036c     (.common:gyro_fifo)
                  200023f8    0000036c     (.common:mag_fifo)
                  20002764    00000004     bmi160.obj (.bss)
                  20002768    00000200     tags-cc1310_pem3.oem3 (.bss:taskStackSection)
                  20002968    00000200     uart.obj (.bss:uartRxTaskStack)
                  20002b68    00000200     uart.obj (.bss:uartTxTaskStack)
                  20002d68    000001b8     (.common:spiCC26XXDMAObjects)
                  20002f20    0000012c     (.common:uartCC26XXObjects)
                  2000304c    00000120     rtsv7M3_T_le_eabi.lib : trgmsg.obj (.bss:_CIOBUF_)
                  2000316c    00000108     (.common:spiRxBuffer)
                  20003274    00000108     (.common:spiTxBuffer)
                  2000337c    000000e0     (.common:i2cCC26xxObjects)
                  2000345c    000000c8     (.common:ti_sysbios_family_arm_m3_Hwi_dispatchTable)
                  20003524    000000a0     (.common:__TI_tmpnams)
                  200035c4    00000050     uart.obj (.bss:uartRxTask)
                  20003614    00000050     uart.obj (.bss:uartTxTask)
                  20003664    00000050     (.common:testTask)
                  200036b4    0000003c     i2c_sensors.obj (.bss:testTaskParams)
                  200036f0    0000003c     uart.obj (.bss:uartRxTaskParams)
                  2000372c    0000003c     uart.obj (.bss:uartTxTaskParams)
                  20003768    00000020     receive.obj (.bss:rxDataEntryBuffer)
                  20003788    00000020     (.common:rxBuffer)
                  200037a8    00000020     (.common:uartCC26XXRingBuffer)
                  200037c8    00000020     (.common:udmaObjects)
                  200037e8    0000001c     (.common:i2cTransaction)
                  20003804    0000001c     (.common:packetReceivedSemaphoreStruct)
                  20003820    00000014     driverlib.lib : osc.obj (.bss:oscHfGlobals)
                  20003834    00000014     (.common:s_bmi160)
                  20003848    00000014     (.common:spiTransaction)
                  2000385c    00000010     bmi160.obj (.bss:mag_trim)
                  2000386c    0000000d     uart.obj (.bss)
                  20003879    00000002     drivers_cc13x0.aem3 : UARTCC26XX.oem3 (.bss)
                  2000387b    00000001     (.common:driverlib_release_0_49471)
                  2000387c    0000000c     spi_flash.obj (.bss:pinState)
                  20003888    0000000c     (.common:txBuffer)
                  20003894    00000008     dpl_cc13x0.aem3 : PowerCC26XX_tirtos.oem3 (.bss:$O1$$)
                  2000389c    00000008     driverlib.lib : sys_ctrl.obj (.bss:powerQualGlobals)
                  200038a4    00000008     (.common:dataQueue)
                  200038ac    00000008     (.common:parmbuf)
                  200038b4    00000006     (.common:accelxyz)
                  200038ba    00000006     (.common:gyroxyz)
                  200038c0    00000004     (.common:ClockP_tickPeriod)
                  200038c4    00000004     (.common:freeMailbox)
                  200038c8    00000004     (.common:i2c)
                  200038cc    00000004     (.common:incomingBuffer)
                  200038d0    00000004     (.common:packetReceivedSemaphore)
                  200038d4    00000004     (.common:readEntry)
                  200038d8    00000004     (.common:readyBuffer)
                  200038dc    00000004     (.common:spiHandle)
                  200038e0    00000004     (.common:uartRxMailbox)
                  200038e4    00000004     (.common:uartTxMailbox)

.data      0    200038e8    00000daa     UNINITIALIZED
                  200038e8    00000400     bmi160.obj (.data:v_fifo_data_u8)
                  20003ce8    00000114     drivers_cc13x0.aem3 : PINCC26XX.oem3 (.data:$O1$$)
                  20003dfc    00000114                         : PowerCC26XX.oem3 (.data:PowerCC26XX_module)
                  20003f10    000000f0     rtsv7M3_T_le_eabi.lib : defs.obj (.data:_ftable)
                  20004000    000000a0     radio_setup.obj (.data:radio_cmd_prop_div_setup)
                  200040a0    00000090     radio_setup.obj (.data:radio_cmd_prop_rx)
                  20004130    00000080     radio_setup.obj (.data:radio_cmd_prop_tx_adv)
                  200041b0    00000078     rtsv7M3_T_le_eabi.lib : write.obj (.data:_device)
                  20004228    00000060     radio_setup.obj (.data:radio_cmd_fs)
                  20004288    00000060     radio_setup.obj (.data:radio_cmd_prop_tx)
                  200042e8    00000060     tags-cc1310_pem3.oem3 (.data:ti_sysbios_knl_Task_Module_State_0_readyQ__A)
                  20004348    00000058     radio_setup.obj (.data:lrmOverrides)
                  200043a0    00000050     rtsv7M3_T_le_eabi.lib : write.obj (.data:_stream)
                  200043f0    0000004c     tags-cc1310_pem3.oem3 (.data:ti_sysbios_knl_Task_Object__table__V)
                  2000443c    00000004     rtsv7M3_T_le_eabi.lib : errno.obj (.data)
                  20004440    00000048     tags-cc1310_pem3.oem3 (.data:ti_sysbios_family_arm_cc26xx_Timer_Object__table__V)
                  20004488    00000040     radio_setup.obj (.data:radio_mode)
                  200044c8    00000038     tags-cc1310_pem3.oem3 (.data:ti_sysbios_gates_GateMutex_Object__table__V)
                  20004500    00000030     tags-cc1310_pem3.oem3 (.data:ti_sysbios_knl_Swi_Module_State_0_readyQ__A)
                  20004530    00000030     tags-cc1310_pem3.oem3 (.data:ti_sysbios_knl_Swi_Object__table__V)
                  20004560    00000020     tags-cc1310_pem3.oem3 (.data:ti_sysbios_knl_Clock_Object__table__V)
                  20004580    00000020     tags-cc1310_pem3.oem3 (.data:xdc_runtime_Error_IgnoreBlock)
                  200045a0    00000018     tags-cc1310_pem3.oem3 (.data:ti_sysbios_family_arm_m3_Hwi_Object__table__V)
                  200045b8    00000018     tags-cc1310_pem3.oem3 (.data:ti_sysbios_heaps_HeapMem_Object__table__V)
                  200045d0    00000010     rtsv7M3_T_le_eabi.lib : defs.obj (.data)
                  200045e0    0000000c                           : exit.obj (.data:$O1$$)
                  200045ec    0000000c     tags-cc1310_pem3.oem3 (.data:ti_sysbios_family_arm_m3_Timer_Module__state__V)
                  200045f8    00000008     rtsv7M3_T_le_eabi.lib : _lock.obj (.data:$O1$$)
                  20004600    00000008     spi_flash.obj (.data:BoardFlashPinTable)
                  20004608    00000008     bmi160.obj (.data)
                  20004610    00000008     tags-cc1310_pem3.oem3 (.data:ti_sysbios_family_arm_m3_Hwi_Module__root__V)
                  20004618    00000008     tags-cc1310_pem3.oem3 (.data:ti_sysbios_gates_GateHwi_Module__root__V)
                  20004620    00000008     tags-cc1310_pem3.oem3 (.data:ti_sysbios_gates_GateMutex_Module__root__V)
                  20004628    00000008     tags-cc1310_pem3.oem3 (.data:ti_sysbios_hal_Hwi_Module__root__V)
                  20004630    00000008     tags-cc1310_pem3.oem3 (.data:ti_sysbios_heaps_HeapMem_Module__root__V)
                  20004638    00000008     tags-cc1310_pem3.oem3 (.data:ti_sysbios_knl_Clock_Module__root__V)
                  20004640    00000008     tags-cc1310_pem3.oem3 (.data:ti_sysbios_knl_Mailbox_Module__root__V)
                  20004648    00000008     tags-cc1310_pem3.oem3 (.data:ti_sysbios_knl_Queue_Module__root__V)
                  20004650    00000008     tags-cc1310_pem3.oem3 (.data:ti_sysbios_knl_Semaphore_Module__root__V)
                  20004658    00000008     tags-cc1310_pem3.oem3 (.data:ti_sysbios_knl_Swi_Module__root__V)
                  20004660    00000008     tags-cc1310_pem3.oem3 (.data:ti_sysbios_knl_Task_Module__root__V)
                  20004668    00000005     i2c_sensors.obj (.data)
                  2000466d    00000001     drivers_cc13x0.aem3 : I2C.oem3 (.data)
                  2000466e    00000002     tags-cc1310_pem3.oem3 (.data:ti_sysbios_family_arm_m3_Hwi_Module_State_0_excActive__A)
                  20004670    00000004     rtsv7M3_T_le_eabi.lib : fopen.obj (.data)
                  20004674    00000004                           : open.obj (.data)
                  20004678    00000004                           : stkdepth_vars.obj (.data)
                  2000467c    00000004     spi_flash.obj (.data)
                  20004680    00000004     tags-cc1310_pem3.oem3 (.data:ti_sysbios_family_arm_m3_Hwi_Module_State_0_excContext__A)
                  20004684    00000004     tags-cc1310_pem3.oem3 (.data:ti_sysbios_family_arm_m3_Hwi_Module_State_0_excStack__A)
                  20004688    00000004     tags-cc1310_pem3.oem3 (.data:ti_sysbios_knl_Task_Module_State_0_idleTask__A)
                  2000468c    00000004     uart.obj (.data)
                  20004690    00000001     drivers_cc13x0.aem3 : SPI.oem3 (.data)
                  20004691    00000001                         : UART.oem3 (.data)

.stack     0    20004d00    00000300     UNINITIALIZED
                  20004d00    00000300     --HOLE--

.bootVecs 
*          0    00000000    00000008     DSECT
                  00000000    00000008     boot.aem3 : boot.oem3 (.bootVecs)

xdc.meta   0    00000000    00000105     COPY SECTION
                  00000000    00000105     tags-cc1310_pem3.oem3 (xdc.meta)

xdc.noload 
*          0    00000000    00000000     COPY SECTION

MODULE SUMMARY

       Module                            code    ro data   rw data
       ------                            ----    -------   -------
    .\
       bmi160.obj                        8162    0         3680   
       radio_setup.obj                   452     2368      776    
       buffers.obj                       56      0         3076   
       uart.obj                          932     5         1329   
       bmi160_support.obj                2224    0         32     
       i2c_sensors.obj                   940     0         1245   
       CC1310_LAUNCHXL.obj               0       292       1028   
       spi_flash.obj                     660     0         576    
       receive.obj                       188     0         80     
       main.obj                          176     0         0      
       rf_queue_pointer.obj              136     0         4      
       ccfg.obj                          0       88        0      
    +--+---------------------------------+-------+---------+---------+
       Total:                            13926   2753      11826  
                                                                  
    C:\Users\Nir Zaidman\github\atlas\firmware\tags\tags-cc1310\tag-cc1310-v3\configPkg\package\cfg\
       tags-cc1310_pem3.oem3             876     1497      3842   
    +--+---------------------------------+-------+---------+---------+
       Total:                            876     1497      3842   
                                                                  
    C:/ti/simplelink_cc13x0_sdk_1_50_00_08/kernel/tirtos/packages/ti/dpl/lib/dpl_cc13x0.aem3
       PowerCC26XX_tirtos.oem3           296     0         8      
       ClockP_tirtos.oem3                98      0         4      
       SwiP_tirtos.oem3                  96      0         0      
       HwiP_tirtos.oem3                  94      0         0      
       SemaphoreP_tirtos.oem3            70      0         0      
    +--+---------------------------------+-------+---------+---------+
       Total:                            654     0         12     
                                                                  
    C:/ti/simplelink_cc13x0_sdk_1_50_00_08/source/ti/devices/cc13x0/driverlib/bin/ccs/driverlib.lib
       setup_rom.obj                     1468    0         0      
       sys_ctrl.obj                      760     0         8      
       osc.obj                           388     0         20     
       setup.obj                         364     0         0      
       chipinfo.obj                      182     0         0      
       aon_rtc.obj                       44      0         0      
       ddi.obj                           44      0         0      
       adi.obj                           40      0         0      
       aon_batmon.obj                    40      0         0      
       cpu.obj                           30      0         0      
       vims.obj                          14      0         0      
       driverlib_release.obj             0       0         1      
    +--+---------------------------------+-------+---------+---------+
       Total:                            3374    0         29     
                                                                  
    C:/ti/simplelink_cc13x0_sdk_1_50_00_08/source/ti/drivers/lib/drivers_cc13x0.aem3
       UARTCC26XX.oem3                   2610    104       2      
       SPICC26XXDMA.oem3                 2340    80        64     
       PowerCC26XX.oem3                  2060    76        276    
       PINCC26XX.oem3                    1546    0         276    
       I2CCC26XX.oem3                    1396    32        0      
       PowerCC26XX_calibrateRCOSC.oem3   1380    0         0      
       UART.oem3                         172     36        1      
       SPI.oem3                          158     32        1      
       I2C.oem3                          154     16        1      
       UDMACC26XX.oem3                   156     0         0      
       RingBuf.oem3                      148     0         0      
       List.oem3                         76      0         0      
    +--+---------------------------------+-------+---------+---------+
       Total:                            12196   376       621    
                                                                  
    C:\Users\Nir Zaidman\github\atlas\firmware\tags\tags-cc1310\src\sysbios\rom_sysbios.aem3
       rom_sysbios.obj                   2265    0         0      
       rom_sysbios_config.obj            26      0         0      
    +--+---------------------------------+-------+---------+---------+
       Total:                            2291    0         0      
                                                                  
    C:\ti\ccsv7\tools\compiler\ti-cgt-arm_16.9.6.LTS\lib\rtsv7M3_T_le_eabi.lib
       _printfi.obj                      4358    0         0      
       ull_div_t2.obj                    500     0         0      
       fopen.obj                         452     0         4      
       fd_add_t2.obj                     438     0         0      
       defs.obj                          0       0         416    
       trgmsg.obj                        104     0         288    
       fd_div_t2.obj                     310     0         0      
       fd_cmp_t2.obj                     268     0         0      
       ctype.obj                         0       257       0      
       fd_mul_t2.obj                     252     0         0      
       write.obj                         40      0         200    
       setvbuf.obj                       220     0         0      
       s_scalbn.obj                      208     0         0      
       fflush.obj                        200     0         0      
       open.obj                          188     0         4      
       _io_perm.obj                      172     0         0      
       memcpy_t2.obj                     156     0         0      
       fclose.obj                        152     0         0      
       fputc.obj                         152     0         0      
       fs_div_t2.obj                     146     0         0      
       fs_mul_t2.obj                     122     0         0      
       memset_t2.obj                     122     0         0      
       getdevice.obj                     112     0         0      
       copy_decompress_lzss.obj          104     0         0      
       hostlseek.obj                     104     0         0      
       hostopen.obj                      96      0         8      
       hostrename.obj                    104     0         0      
       fseek.obj                         100     0         0      
       sprintf.obj                       96      0         0      
       close.obj                         92      0         0      
       s_frexp.obj                       92      0         0      
       hostread.obj                      88      0         0      
       hostwrite.obj                     88      0         0      
       ltoa.obj                          84      0         0      
       atoi.obj                          76      0         0      
       cpy_tbl.obj                       76      0         0      
       fd_toi_t2.obj                     72      0         0      
       fd_tou_t2.obj                     68      0         0      
       hostclose.obj                     68      0         0      
       hostunlink.obj                    68      0         0      
       u_divt2.obj                       64      0         0      
       fs_tod_t2.obj                     56      0         0      
       fs_toi_t2.obj                     56      0         0      
       strncpy.obj                       54      0         0      
       fs_tou_t2.obj                     52      0         0      
       i_tofd_t2.obj                     46      0         0      
       unlink.obj                        44      0         0      
       lseek.obj                         40      0         0      
       u_tofs_t2.obj                     36      0         0      
       _lock.obj                         20      0         8      
       memccpy.obj                       26      0         0      
       args_main.obj                     24      0         0      
       ll_mul_t2.obj                     24      0         0      
       strcmp.obj                        24      0         0      
       strchr.obj                        22      0         0      
       strcpy.obj                        22      0         0      
       strlen.obj                        20      0         0      
       copy_decompress_none.obj          14      0         0      
       copy_zero_init.obj                12      0         0      
       exit.obj                          0       0         12     
       s_copysign.obj                    8       0         0      
       errno.obj                         0       0         4      
       stkdepth_vars.obj                 0       0         4      
       i_div0.obj                        2       0         0      
    +--+---------------------------------+-------+---------+---------+
       Total:                            10814   257       948    
                                                                  
    C:\ti\simplelink_cc13x0_sdk_1_50_00_08\kernel\tirtos\packages\ti\targets\arm\rtsarm\lib\auto_init.aem3
       auto_init.oem3                    160     0         0      
    +--+---------------------------------+-------+---------+---------+
       Total:                            160     0         0      
                                                                  
    C:\ti\simplelink_cc13x0_sdk_1_50_00_08\kernel\tirtos\packages\ti\targets\arm\rtsarm\lib\boot.aem3
       boot.oem3                         68      0         0      
    +--+---------------------------------+-------+---------+---------+
       Total:                            68      0         0      
                                                                  
       Stack:                            0       0         768    
       Linker Generated:                 432     940       0      
    +--+---------------------------------+-------+---------+---------+
       Grand Total:                      44791   5823      18046  


LINKER GENERATED COPY TABLES

__TI_cinit_table @ 0000c728 records: 16, size/record: 8, table size: 128
	.data: load addr=0000c3f8, load size=0000023d bytes, run addr=200038e8, run size=00000daa bytes, compression=lzss
	.data:ti_sysbios_family_arm_m3_Hwi_Module__state__V: load addr=0000c635, load size=00000028 bytes, run addr=20000144, run size=00000034 bytes, compression=lzss
	.data:ti_sysbios_knl_Task_Module__state__V: load addr=0000c65d, load size=00000021 bytes, run addr=20000100, run size=00000044 bytes, compression=lzss
	.data:ti_sysbios_BIOS_Module__state__V: load addr=0000c67e, load size=0000001f bytes, run addr=200001a4, run size=00000024 bytes, compression=lzss
	.data:ti_sysbios_knl_Clock_Module__state__V: load addr=0000c69d, load size=0000001d bytes, run addr=20000178, run size=0000002c bytes, compression=lzss
	.data:ti_sysbios_knl_Swi_Module__state__V: load addr=0000c6ba, load size=0000000e bytes, run addr=200001c8, run size=0000001c bytes, compression=lzss
	.data:ti_sysbios_family_arm_cc26xx_Timer_Module__state__V: load addr=0000c6d4, load size=0000000b bytes, run addr=200001e4, run size=00000008 bytes, compression=lzss
	.TI.bound:dmaSpi0RxControlTableEntry: load addr=0000c6e0, load size=00000008 bytes, run addr=20000430, run size=00000010 bytes, compression=zero_init
	.TI.bound:dmaSpi0TxControlTableEntry: load addr=0000c6e8, load size=00000008 bytes, run addr=20000440, run size=00000010 bytes, compression=zero_init
	.TI.bound:dmaSpi1RxControlTableEntry: load addr=0000c6f0, load size=00000008 bytes, run addr=20000500, run size=00000010 bytes, compression=zero_init
	.TI.bound:dmaSpi1TxControlTableEntry: load addr=0000c6f8, load size=00000008 bytes, run addr=20000510, run size=00000010 bytes, compression=zero_init
	.bss: load addr=0000c700, load size=00000008 bytes, run addr=20000520, run size=000033c8 bytes, compression=zero_init
	.data:xdc_runtime_Memory_Module__state__V: load addr=0000c708, load size=00000008 bytes, run addr=20000200, run size=00000004 bytes, compression=lzss
	.data:ti_sysbios_family_arm_cc26xx_TimestampProvider_Module__state__V: load addr=0000c710, load size=00000007 bytes, run addr=200001ec, run size=00000004 bytes, compression=lzss
	.data:xdc_runtime_Startup_Module__state__V: load addr=0000c717, load size=00000007 bytes, run addr=200001f0, run size=00000008 bytes, compression=lzss
	.data:xdc_runtime_System_Module__state__V: load addr=0000c71e, load size=00000007 bytes, run addr=200001f8, run size=00000008 bytes, compression=lzss


LINKER GENERATED HANDLER TABLE

__TI_handler_table @ 0000c6c8 records: 3, size/record: 4, table size: 12
	index: 0, handler: __TI_decompress_lzss
	index: 1, handler: __TI_decompress_none
	index: 2, handler: __TI_zero_init


FAR CALL TRAMPOLINES

callee name               trampoline name
   callee addr  tramp addr   call addr  call info
--------------  -----------  ---------  ----------------
ti_sysbios_knl_Swi_destruct  $Tramp$TT$L$PI$$ti_sysbios_knl_Swi_destruct
   1001c2e5     0000c248     0000c21a   dpl_cc13x0.aem3 : SwiP_tirtos.oem3 (.text:SwiP_destruct)
ti_sysbios_knl_Semaphore_destruct  $Tramp$TT$L$PI$$ti_sysbios_knl_Semaphore_destruct
   1001c2dd     0000c250     0000c212   dpl_cc13x0.aem3 : SemaphoreP_tirtos.oem3 (.text:SemaphoreP_destruct)
ti_sysbios_family_arm_m3_Hwi_disableFxn__E  $Tramp$TT$L$PI$$ti_sysbios_family_arm_m3_Hwi_disableFxn__E
   1001c145     0000c258     0000c1fe   dpl_cc13x0.aem3 : HwiP_tirtos.oem3 (.text:HwiP_disable)
ti_sysbios_family_arm_m3_Hwi_destruct  $Tramp$TT$L$PI$$ti_sysbios_family_arm_m3_Hwi_destruct
   1001c25d     0000c260     0000c1fa   dpl_cc13x0.aem3 : HwiP_tirtos.oem3 (.text:HwiP_destruct)
ti_sysbios_BIOS_getCpuFreq__E  $Tramp$TT$L$PI$$ti_sysbios_BIOS_getCpuFreq__E
   1001bff5     0000c268     0000c1ea   dpl_cc13x0.aem3 : ClockP_tirtos.oem3 (.text:ClockP_getCpuFreq)
ti_sysbios_knl_Clock_destruct  $Tramp$TT$L$PI$$ti_sysbios_knl_Clock_destruct
   1001c2b5     0000c270     0000c1e6   dpl_cc13x0.aem3 : ClockP_tirtos.oem3 (.text:ClockP_destruct)
xdc_runtime_Startup_startMods__I  $Tramp$TT$L$PI$$xdc_runtime_Startup_startMods__I
   1001c309     0000c278     0000bfec   tags-cc1310_pem3.oem3 (.text:xdc_runtime_Startup_exec__I)
ti_sysbios_knl_Clock_logTick__E  $Tramp$TT$L$PI$$ti_sysbios_knl_Clock_logTick__E
   1001be63     0000c280     0000bf9a   tags-cc1310_pem3.oem3 (.text:ti_sysbios_knl_Clock_doTick__I)
ti_sysbios_knl_Swi_post__E  $Tramp$TT$L$PI$$ti_sysbios_knl_Swi_post__E
   1001b31d     0000c288     0000be90   rom_sysbios.aem3 : rom_sysbios.obj (.text:ti_sysbios_knl_Swi_or__E)
                             0000bfa2   tags-cc1310_pem3.oem3 (.text:ti_sysbios_knl_Clock_doTick__I)
                             0000c22a   dpl_cc13x0.aem3 : SwiP_tirtos.oem3 (.text:SwiP_post)
ti_sysbios_BIOS_RtsGateProxy_leave__E  $Tramp$TT$L$PI$$ti_sysbios_BIOS_RtsGateProxy_leave__E
   1001c249     0000c290     0000be5a   tags-cc1310_pem3.oem3 (.text:ti_sysbios_BIOS_rtsUnlock__I)
xdc_runtime_Memory_free__E  $Tramp$TT$L$PI$$xdc_runtime_Memory_free__E
   1001c7fd     0000c298     0000bc78   tags-cc1310_pem3.oem3 (.text:free)
ti_sysbios_knl_Swi_construct  $Tramp$TT$L$PI$$ti_sysbios_knl_Swi_construct
   1001b085     0000c2a0     0000bc4e   rom_sysbios.aem3 : rom_sysbios.obj (.text:ti_sysbios_knl_Swi_construct2__E)
ti_sysbios_BIOS_RtsGateProxy_enter__E  $Tramp$TT$L$PI$$ti_sysbios_BIOS_RtsGateProxy_enter__E
   1001c245     0000c2a8     0000bace   tags-cc1310_pem3.oem3 (.text:ti_sysbios_BIOS_rtsLock__I)
ti_sysbios_knl_Task_restore__E  $Tramp$TT$L$PI$$ti_sysbios_knl_Task_restore__E
   1001ba45     0000c2b0     0000ba9a   dpl_cc13x0.aem3 : PowerCC26XX_tirtos.oem3 (.text:PowerCC26XX_schedulerRestore)
xdc_runtime_Memory_alloc__E  $Tramp$TT$L$PI$$xdc_runtime_Memory_alloc__E
   1001c485     0000c2b8     0000b568   tags-cc1310_pem3.oem3 (.text:ti_sysbios_rts_gnu_MemAlloc_alloc)
ti_sysbios_BIOS_setThreadType__E  $Tramp$TT$L$PI$$ti_sysbios_BIOS_setThreadType__E
   1001c041     0000c2c0     0000b4fc   tags-cc1310_pem3.oem3 (.text:ti_sysbios_BIOS_atExitFunc__I)
                             0000bf26   tags-cc1310_pem3.oem3 (.text:ti_sysbios_BIOS_exitFunc__I)
ti_sysbios_knl_Task_disable__E  $Tramp$TT$L$PI$$ti_sysbios_knl_Task_disable__E
   1001c0f1     0000c2c8     0000b4f6   tags-cc1310_pem3.oem3 (.text:ti_sysbios_BIOS_atExitFunc__I)
                             0000ba6a   dpl_cc13x0.aem3 : PowerCC26XX_tirtos.oem3 (.text:PowerCC26XX_schedulerDisable)
ti_sysbios_knl_Swi_disable__E  $Tramp$TT$L$PI$$ti_sysbios_knl_Swi_disable__E
   1001c0d1     0000c2d0     0000b4f2   tags-cc1310_pem3.oem3 (.text:ti_sysbios_BIOS_atExitFunc__I)
                             0000c21e   dpl_cc13x0.aem3 : SwiP_tirtos.oem3 (.text:SwiP_disable)
ti_sysbios_family_arm_m3_Hwi_disableInterrupt__E  $Tramp$TT$L$PI$$ti_sysbios_family_arm_m3_Hwi_disableInterrupt__E
   1001b251     0000c2d8     0000b356   rom_sysbios.aem3 : rom_sysbios.obj (.text:ti_sysbios_family_arm_m3_Timer_initDevice__I)
                             0000bc3c                    : rom_sysbios.obj (.text:ti_sysbios_family_arm_m3_Timer_stop__E)
                             0000c202   dpl_cc13x0.aem3 : HwiP_tirtos.oem3 (.text:HwiP_disableInterrupt)
ti_sysbios_knl_Task_startup__E  $Tramp$TT$L$PI$$ti_sysbios_knl_Task_startup__E
   1001c305     0000c2e0     0000b2f8   tags-cc1310_pem3.oem3 (.text:ti_sysbios_BIOS_startFunc__I)
ti_sysbios_knl_Swi_startup__E  $Tramp$TT$L$PI$$ti_sysbios_knl_Swi_startup__E
   1001c239     0000c2e8     0000b2f4   tags-cc1310_pem3.oem3 (.text:ti_sysbios_BIOS_startFunc__I)
ti_sysbios_hal_Hwi_startup__E  $Tramp$TT$L$PI$$ti_sysbios_hal_Hwi_startup__E
   1001c289     0000c2f0     0000b2f0   tags-cc1310_pem3.oem3 (.text:ti_sysbios_BIOS_startFunc__I)
ti_sysbios_family_arm_cc26xx_Timer_startup__E  $Tramp$TT$L$PI$$ti_sysbios_family_arm_cc26xx_Timer_startup__E
   1001b791     0000c2f8     0000b2ec   tags-cc1310_pem3.oem3 (.text:ti_sysbios_BIOS_startFunc__I)
xdc_runtime_System_atexit__E  $Tramp$TT$L$PI$$xdc_runtime_System_atexit__E
   1001c67d     0000c300     0000b2e0   tags-cc1310_pem3.oem3 (.text:ti_sysbios_BIOS_startFunc__I)
ti_sysbios_knl_Semaphore_post__E  $Tramp$TT$L$PI$$ti_sysbios_knl_Semaphore_post__E
   1001ac41     0000c308     0000addc   uart.obj (.text:uartLocalRead)
                             0000ae18   uart.obj (.text:uartLocalWrite)
                             0000c128   uart.obj (.text:uartRxCallback)
                             0000c134   uart.obj (.text:uartTxCallback)
                             0000c216   dpl_cc13x0.aem3 : SemaphoreP_tirtos.oem3 (.text:SemaphoreP_post)
ti_sysbios_knl_Semaphore_pend__E  $Tramp$TT$L$PI$$ti_sysbios_knl_Semaphore_pend__E
   1001a001     0000c310     0000adcc   uart.obj (.text:uartLocalRead)
                             0000ade8   uart.obj (.text:uartLocalRead)
                             0000ae08   uart.obj (.text:uartLocalWrite)
                             0000ae24   uart.obj (.text:uartLocalWrite)
                             0000bfc0   dpl_cc13x0.aem3 : SemaphoreP_tirtos.oem3 (.text:SemaphoreP_pend)
ti_sysbios_family_arm_m3_Hwi_construct  $Tramp$TT$L$PI$$ti_sysbios_family_arm_m3_Hwi_construct
   1001af29     0000c318     0000ad9a   rom_sysbios.aem3 : rom_sysbios.obj (.text:ti_sysbios_family_arm_m3_Hwi_construct2__E)
ti_sysbios_knl_Swi_Params__init__S  $Tramp$TT$L$PI$$ti_sysbios_knl_Swi_Params__init__S
   1001c1c9     0000c320     0000ad22   dpl_cc13x0.aem3 : SwiP_tirtos.oem3 (.text:SwiP_construct)
ti_sysbios_family_arm_m3_Hwi_Params__init__S  $Tramp$TT$L$PI$$ti_sysbios_family_arm_m3_Hwi_Params__init__S
   1001c139     0000c328     0000abf0   dpl_cc13x0.aem3 : HwiP_tirtos.oem3 (.text:HwiP_construct)
ti_sysbios_family_arm_m3_Hwi_enableInterrupt__E  $Tramp$TT$L$PI$$ti_sysbios_family_arm_m3_Hwi_enableInterrupt__E
   1001b295     0000c330     0000a8ea   rom_sysbios.aem3 : rom_sysbios.obj (.text:ti_sysbios_family_arm_m3_Timer_start__E)
                             0000c206   dpl_cc13x0.aem3 : HwiP_tirtos.oem3 (.text:HwiP_enableInterrupt)
xdc_runtime_System_exit__E  $Tramp$TT$L$PI$$xdc_runtime_System_exit__E
   1001c7cd     0000c338     0000a7a8   boot.aem3 : boot.oem3 (.text)
                             0000bf2c   tags-cc1310_pem3.oem3 (.text:ti_sysbios_BIOS_exitFunc__I)
xdc_runtime_Error_raiseX__E  $Tramp$TT$L$PI$$xdc_runtime_Error_raiseX__E
   1001c765     0000c340     0000a6dc   rom_sysbios.aem3 : rom_sysbios.obj (.text:ti_sysbios_family_arm_m3_Timer_setPeriod__E)
ti_sysbios_knl_Clock_construct  $Tramp$TT$L$PI$$ti_sysbios_knl_Clock_construct
   1001b575     0000c348     0000a5b8   dpl_cc13x0.aem3 : ClockP_tirtos.oem3 (.text:ClockP_construct)
ti_sysbios_knl_Clock_Params__init__S  $Tramp$TT$L$PI$$ti_sysbios_knl_Clock_Params__init__S
   1001c181     0000c350     0000a5a8   dpl_cc13x0.aem3 : ClockP_tirtos.oem3 (.text:ClockP_construct)
ti_sysbios_knl_Clock_scheduleNextTick__E  $Tramp$TT$L$PI$$ti_sysbios_knl_Clock_scheduleNextTick__E
   1001beb9     0000c358     00007ca6   rom_sysbios.aem3 : rom_sysbios.obj (.text:ti_sysbios_knl_Clock_workFuncDynamic__E)
ti_sysbios_knl_Clock_walkQueueDynamic__E  $Tramp$TT$L$PI$$ti_sysbios_knl_Clock_walkQueueDynamic__E
   1001a809     0000c360     00007c6e   rom_sysbios.aem3 : rom_sysbios.obj (.text:ti_sysbios_knl_Clock_workFuncDynamic__E)
                             00007c8a                    : rom_sysbios.obj (.text:ti_sysbios_knl_Clock_workFuncDynamic__E)
ti_sysbios_knl_Clock_TimerProxy_getCurrentTick__E  $Tramp$TT$L$PI$$ti_sysbios_knl_Clock_TimerProxy_getCurrentTick__E
   1001c091     0000c368     00007c3c   rom_sysbios.aem3 : rom_sysbios.obj (.text:ti_sysbios_knl_Clock_workFuncDynamic__E)
                             0000b696                    : rom_sysbios.obj (.text:ti_sysbios_knl_Clock_getTicksUntilInterrupt__E)
ti_sysbios_BIOS_start__E  $Tramp$TT$L$PI$$ti_sysbios_BIOS_start__E
   1001c051     0000c370     0000739e   main.obj (.text:main)
xdc_runtime_System_abort__E  $Tramp$TT$L$PI$$xdc_runtime_System_abort__E
   1001c745     0000c378     0000736c   main.obj (.text:main)
ti_sysbios_knl_Semaphore_construct  $Tramp$TT$L$PI$$ti_sysbios_knl_Semaphore_construct
   1001b705     0000c380     00007098   receive.obj (.text:receive_init)
                             0000b64e   dpl_cc13x0.aem3 : SemaphoreP_tirtos.oem3 (.text:SemaphoreP_constructBinary)
ti_sysbios_knl_Clock_start__E  $Tramp$TT$L$PI$$ti_sysbios_knl_Clock_start__E
   1001bfdf     0000c388     000067f0   dpl_cc13x0.aem3 : PowerCC26XX_tirtos.oem3 (.text:PowerCC26XX_standbyPolicy)
                             0000bb1a   rom_sysbios.aem3 : rom_sysbios.obj (.text:ti_sysbios_knl_Clock_stop__E)
                             0000c1f2   dpl_cc13x0.aem3 : ClockP_tirtos.oem3 (.text:ClockP_start)
ti_sysbios_knl_Clock_setTimeout__E  $Tramp$TT$L$PI$$ti_sysbios_knl_Clock_setTimeout__E
   1001c2bd     0000c390     000067ea   dpl_cc13x0.aem3 : PowerCC26XX_tirtos.oem3 (.text:PowerCC26XX_standbyPolicy)
                             0000c1ee                   : ClockP_tirtos.oem3 (.text:ClockP_setTimeout)
ti_sysbios_knl_Task_construct  $Tramp$TT$L$PI$$ti_sysbios_knl_Task_construct
   1001b125     0000c398     000050d2   uart.obj (.text:uartTasks_init)
                             000050fe   uart.obj (.text:uartTasks_init)
                             000083ba   i2c_sensors.obj (.text:i2cSensorsInit)
ti_sysbios_knl_Task_Params__init__S  $Tramp$TT$L$PI$$ti_sysbios_knl_Task_Params__init__S
   1001c1d5     0000c3a0     000050ae   uart.obj (.text:uartTasks_init)
                             000050e0   uart.obj (.text:uartTasks_init)
                             0000839c   i2c_sensors.obj (.text:i2cSensorsInit)
ti_sysbios_knl_Semaphore_create  $Tramp$TT$L$PI$$ti_sysbios_knl_Semaphore_create
   1001b5a9     0000c3a8     00005052   uart.obj (.text:uartTasks_init)
                             00005070   uart.obj (.text:uartTasks_init)
                             0000508e   uart.obj (.text:uartTasks_init)
ti_sysbios_knl_Semaphore_Params__init__S  $Tramp$TT$L$PI$$ti_sysbios_knl_Semaphore_Params__init__S
   1001c1bd     0000c3b0     00005044   uart.obj (.text:uartTasks_init)
                             00005062   uart.obj (.text:uartTasks_init)
                             00005080   uart.obj (.text:uartTasks_init)
                             0000708c   receive.obj (.text:receive_init)
                             0000b63e   dpl_cc13x0.aem3 : SemaphoreP_tirtos.oem3 (.text:SemaphoreP_constructBinary)
ti_sysbios_knl_Mailbox_create  $Tramp$TT$L$PI$$ti_sysbios_knl_Mailbox_create
   1001abdd     0000c3b8     00004fec   uart.obj (.text:uartTasks_init)
                             00004ffc   uart.obj (.text:uartTasks_init)
                             0000aeae   buffers.obj (.text:buffers_init)
ti_sysbios_knl_Swi_restore__E  $Tramp$TT$L$PI$$ti_sysbios_knl_Swi_restore__E
   1001b5dd     0000c3c0     00004444   drivers_cc13x0.aem3 : PowerCC26XX.oem3 (.text:Power_sleep)
ti_sysbios_knl_Task_sleep__E  $Tramp$TT$L$PI$$ti_sysbios_knl_Task_sleep__E
   1001a9d9     0000c3c8     00003f76   i2c_sensors.obj (.text:bmi160Function)
                             0000bf66   bmi160_support.obj (.text:bmi160_delay_ms)
ti_sysbios_knl_Mailbox_post__E  $Tramp$TT$L$PI$$ti_sysbios_knl_Mailbox_post__E
   1001a58d     0000c3d0     00003f70   i2c_sensors.obj (.text:bmi160Function)
                             00006a70   uart.obj (.text:uartRxTaskFunction)
                             0000786a   uart.obj (.text:uartTxTaskFunction)
                             000078dc   i2c_sensors.obj (.text:readDataFunction)
                             00007916   i2c_sensors.obj (.text:readDataFunction)
                             0000aeca   buffers.obj (.text:buffers_init)
xdc_runtime_Timestamp_get32__E  $Tramp$TT$L$PI$$xdc_runtime_Timestamp_get32__E
   1001c82d     0000c3d8     00003e42   i2c_sensors.obj (.text:bmi160Function)
                             00003e7c   i2c_sensors.obj (.text:bmi160Function)
                             00003ea8   i2c_sensors.obj (.text:bmi160Function)
                             00003f24   i2c_sensors.obj (.text:bmi160Function)
ti_sysbios_knl_Mailbox_pend__E  $Tramp$TT$L$PI$$ti_sysbios_knl_Mailbox_pend__E
   1001a969     0000c3e0     00003df2   i2c_sensors.obj (.text:bmi160Function)
                             00003e58   i2c_sensors.obj (.text:bmi160Function)
                             00006a7e   uart.obj (.text:uartRxTaskFunction)
                             000070ac   receive.obj (.text:receive_init)
                             00007810   uart.obj (.text:uartTxTaskFunction)
                             000078bc   i2c_sensors.obj (.text:readDataFunction)
                             000078fa   i2c_sensors.obj (.text:readDataFunction)
                             00008312   rf_queue_pointer.obj (.text:RFQueue_defineQueue)
xdc_runtime_Timestamp_getFreq__E  $Tramp$TT$L$PI$$xdc_runtime_Timestamp_getFreq__E
   1001c12b     0000c3e8     00003de6   i2c_sensors.obj (.text:bmi160Function)
ti_sysbios_family_arm_m3_Hwi_restoreFxn__E  $Tramp$TT$L$PI$$ti_sysbios_family_arm_m3_Hwi_restoreFxn__E
   1001c215     0000c3f0     00003b04   drivers_cc13x0.aem3 : SPICC26XXDMA.oem3 (.text:SPICC26XXDMA_transfer)
                             00003b1a                       : SPICC26XXDMA.oem3 (.text:SPICC26XXDMA_transfer)
                             00003b66                       : SPICC26XXDMA.oem3 (.text:SPICC26XXDMA_transfer)
                             00003c64                       : SPICC26XXDMA.oem3 (.text:SPICC26XXDMA_transfer)
                             000055ee                       : UARTCC26XX.oem3 (.text:UARTCC26XX_open)
                             000055fa                       : UARTCC26XX.oem3 (.text:UARTCC26XX_open)
                             00005684                       : UARTCC26XX.oem3 (.text:UARTCC26XX_open)
                             000058b0                       : I2CCC26XX.oem3 (.text:I2CCC26XX_open)
                             000058c0                       : I2CCC26XX.oem3 (.text:I2CCC26XX_open)
                             00005940                       : I2CCC26XX.oem3 (.text:I2CCC26XX_open)
                             00005c6c                       : SPICC26XXDMA.oem3 (.text:SPICC26XXDMA_open)
                             00005c7c                       : SPICC26XXDMA.oem3 (.text:SPICC26XXDMA_open)
                             00005cda                       : SPICC26XXDMA.oem3 (.text:SPICC26XXDMA_open)
                             00005db0                       : UARTCC26XX.oem3 (.text:UARTCC26XX_read)
                             00005df0                       : UARTCC26XX.oem3 (.text:UARTCC26XX_read)
                             00005e0c                       : UARTCC26XX.oem3 (.text:UARTCC26XX_read)
                             00005e58                       : UARTCC26XX.oem3 (.text:UARTCC26XX_read)
                             00006302                       : UARTCC26XX.oem3 (.text:UARTCC26XX_write)
                             0000631e                       : UARTCC26XX.oem3 (.text:UARTCC26XX_write)
                             000063bc                       : UARTCC26XX.oem3 (.text:UARTCC26XX_write)
                             000066c8                       : SPICC26XXDMA.oem3 (.text:SPICC26XXDMA_transferCancel)
                             0000673c                       : SPICC26XXDMA.oem3 (.text:SPICC26XXDMA_transferCancel)
                             00006786                       : SPICC26XXDMA.oem3 (.text:SPICC26XXDMA_transferCancel)
                             0000692c                       : PINCC26XX.oem3 (.text:PINCC26XX_setIoCfg)
                             00006e74                       : I2CCC26XX.oem3 (.text:I2CCC26XX_transfer)
                             00006e86                       : I2CCC26XX.oem3 (.text:I2CCC26XX_transfer)
                             00006fa2                       : PowerCC26XX.oem3 (.text:Power_releaseDependency)
                             00007344                       : PowerCC26XX.oem3 (.text:Power_setDependency)
                             00007732                       : PowerCC26XX.oem3 (.text:switchXOSCHFclockFunc)
                             00007dd2                       : I2CCC26XX.oem3 (.text:I2CCC26XX_cancel)
                             00008126                       : UARTCC26XX.oem3 (.text:UARTCC26XX_close)
                             00008156                       : UARTCC26XX.oem3 (.text:UARTCC26XX_writeCancel)
                             00008162                       : UARTCC26XX.oem3 (.text:UARTCC26XX_writeCancel)
                             000081a8                       : UARTCC26XX.oem3 (.text:UARTCC26XX_writeCancel)
                             00008284                       : UARTCC26XX.oem3 (.text:writeFinishedDoCallback)
                             00008b26                       : PowerCC26XX_calibrateRCOSC.oem3 (.text:PowerCC26XX_initiateCalibration)
                             00008c30                       : I2CCC26XX.oem3 (.text:I2CCC26XX_close)
                             00008e14                       : UARTCC26XX.oem3 (.text:UARTCC26XX_readCancel)
                             00008e20                       : UARTCC26XX.oem3 (.text:UARTCC26XX_readCancel)
                             00008e2a                       : UARTCC26XX.oem3 (.text:UARTCC26XX_readCancel)
                             00009b28                       : UARTCC26XX.oem3 (.text:UARTCC26XX_control)
                             00009d62                       : UDMACC26XX.oem3 (.text:UDMACC26XX_open)
                             00009ff4                       : SPICC26XXDMA.oem3 (.text:SPICC26XXDMA_close)
                             0000a302                       : SPICC26XXDMA.oem3 (.text:SPICC26XXDMA_swiFxn)
                             0000a60a                       : PINCC26XX.oem3 (.text:PIN_setOutputEnable)
                             0000a706                       : RingBuf.oem3 (.text:RingBuf_put)
                             0000a730                       : RingBuf.oem3 (.text:RingBuf_put)
                             0000a942                       : I2C.oem3 (.text:I2C_init)
                             0000aa42                       : SPI.oem3 (.text:SPI_init)
                             0000aac2                       : UART.oem3 (.text:UART_init)
                             0000ac3e                       : RingBuf.oem3 (.text:RingBuf_get)
                             0000ac46                       : RingBuf.oem3 (.text:RingBuf_get)
                             0000ae8a                       : UARTCC26XX.oem3 (.text:UARTCC26XX_swiIntFxn)
                             0000b024                       : UDMACC26XX.oem3 (.text:UDMACC26XX_close)
                             0000b122                       : PowerCC26XX.oem3 (.text:Power_releaseConstraint)
                             0000b424                       : PowerCC26XX.oem3 (.text:Power_setConstraint)
                             0000ba40                       : List.oem3 (.text:List_put)
                             0000babc                       : PowerCC26XX.oem3 (.text:Power_unregisterNotify)

[54 trampolines]
[162 trampoline calls]


GLOBAL SYMBOLS: SORTED ALPHABETICALLY BY Name 

address   name                                                                      
-------   ----                                                                      
00000ca8  BoardGpioInitTable                                                        
000090e7  C$$IO$$                                                                   
0000c1c5  ClockP_Params_init                                                        
0000a58d  ClockP_construct                                                          
0000c1e7  ClockP_destruct                                                           
0000c1eb  ClockP_getCpuFreq                                                         
1001b6d5  ClockP_getSystemTicks                                                     
0000c1ef  ClockP_setTimeout                                                         
0000c1f3  ClockP_start                                                              
0000c1f7  ClockP_stop                                                               
200038c0  ClockP_tickPeriod                                                         
0000a849  HOSTclose                                                                 
00008fe9  HOSTlseek                                                                 
00009ba5  HOSTopen                                                                  
0000a1b5  HOSTread                                                                  
00009051  HOSTrename                                                                
0000a88d  HOSTunlink                                                                
0000a20d  HOSTwrite                                                                 
0000bff5  HwiP_Params_init                                                          
0000abd5  HwiP_construct                                                            
0000c1fb  HwiP_destruct                                                             
0000c1ff  HwiP_disable                                                              
0000c203  HwiP_disableInterrupt                                                     
0000c207  HwiP_enableInterrupt                                                      
1001c215  HwiP_restore                                                              
00007d55  I2CCC26XX_cancel                                                          
00008bd9  I2CCC26XX_close                                                           
0000c1cb  I2CCC26XX_control                                                         
00000cc4  I2CCC26XX_fxnTable                                                        
0000c161  I2CCC26XX_init                                                            
00005895  I2CCC26XX_open                                                            
00006e41  I2CCC26XX_transfer                                                        
0000c005  I2C_Params_init                                                           
00000cdc  I2C_config                                                                
00000db2  I2C_count                                                                 
00000d6c  I2C_defaultParams                                                         
0000a915  I2C_init                                                                  
0000a955  I2C_open                                                                  
0000c16b  I2C_transfer                                                              
0000c0ad  List_empty                                                                
0000c20b  List_head                                                                 
0000c20f  List_next                                                                 
0000ba25  List_put                                                                  
0000bec5  List_remove                                                               
0000b6dd  NOROM_AONBatMonTemperatureGetDegC                                         
0000bf35  NOROM_AONRTCCurrent64BitValueGet                                          
0000bcb5  NOROM_AONRTCCurrentCompareValueGet                                        
0000c0b9  NOROM_CPUcpsid                                                            
0000c0c5  NOROM_CPUcpsie                                                            
0000c1d1  NOROM_CPUdelay                                                            
0000bb85  NOROM_ChipInfo_GetChipFamily                                              
0000b3a1  NOROM_ChipInfo_GetChipType                                                
0000ac91  NOROM_ChipInfo_GetHwRevision                                              
0000bccd  NOROM_ChipInfo_GetPackageType                                             
0000b57d  NOROM_DDI32RegWrite                                                       
0000b5a9  NOROM_OSCClockSourceGet                                                   
00009a85  NOROM_OSCClockSourceSet                                                   
00009189  NOROM_OSCHF_AttemptToSwitchToXosc                                         
0000b061  NOROM_OSCHF_SwitchToRcOscTurnOffXosc                                      
0000bce5  NOROM_OSCHF_TurnOnXosc                                                    
0000accd  NOROM_OSC_HPOSCRelativeFrequencyOffsetGet                                 
0000c0d1  NOROM_OSC_HPOSCRelativeFrequencyOffsetToRFCoreFormatConvert               
00007609  NOROM_SetupAfterColdResetWakeupFromShutDownCfg1                           
000065c1  NOROM_SetupAfterColdResetWakeupFromShutDownCfg2                           
00005b21  NOROM_SetupAfterColdResetWakeupFromShutDownCfg3                           
0000bcfd  NOROM_SetupGetTrimForAdcShModeEn                                          
0000bd15  NOROM_SetupGetTrimForAdcShVbufEn                                          
00008c41  NOROM_SetupGetTrimForAmpcompCtrl                                          
0000bd2d  NOROM_SetupGetTrimForAmpcompTh1                                           
0000bba1  NOROM_SetupGetTrimForAmpcompTh2                                           
00008ca9  NOROM_SetupGetTrimForAnabypassValue1                                      
0000bd45  NOROM_SetupGetTrimForDblrLoopFilterResetVoltage                           
0000b5d5  NOROM_SetupGetTrimForRadcExtCfg                                           
0000bd5d  NOROM_SetupGetTrimForRcOscLfIBiasTrim                                     
0000bbbd  NOROM_SetupGetTrimForRcOscLfRtuneCtuneTrim                                
0000ba49  NOROM_SetupGetTrimForXoscHfCtl                                            
0000c015  NOROM_SetupGetTrimForXoscHfFastStart                                      
0000c025  NOROM_SetupGetTrimForXoscHfIbiastherm                                     
0000bd75  NOROM_SetupGetTrimForXoscLfRegulatorAndCmirrwrRatio                       
0000b3d1  NOROM_SetupSetAonRtcSubSecInc                                             
0000a369  NOROM_SetupSetCacheModeAccordingToCcfgSetting                             
00008855  NOROM_SetupSetVddrLevel                                                   
000074b9  NOROM_SetupTrimDevice                                                     
00008d11  NOROM_SysCtrlAdjustRechargeAfterPowerDown                                 
00004059  NOROM_SysCtrlSetRechargeBeforePowerDown                                   
00008d79  NOROM_SysCtrl_DCDC_VoltageConditionalControl                              
0000bedb  NOROM_ThisLibraryIsFor_CC13x0_HwRev20AndLater_HaltIfViolated              
0000c075  NOROM_VIMSModeGet                                                         
0000a995  PINCC26XX_getConfig                                                       
0000c035  PINCC26XX_getPinCount                                                     
00000d98  PINCC26XX_hwAttrs                                                         
0000b601  PINCC26XX_setMux                                                          
000091ed  PIN_add                                                                   
0000bb49  PIN_close                                                                 
0000bd8d  PIN_getConfig                                                             
00004c69  PIN_init                                                                  
000079c9  PIN_open                                                                  
0000c0dd  PIN_registerIntCb                                                         
0000a055  PIN_remove                                                                
0000b095  PIN_setConfig                                                             
0000b0c9  PIN_setInterrupt                                                          
0000a5d5  PIN_setOutputEnable                                                       
0000ae35  PIN_setOutputValue                                                        
00009c65  PowerCC26XX_RCOSC_clockFunc                                               
000037d1  PowerCC26XX_auxISR                                                        
00009cc1  PowerCC26XX_calibrate                                                     
00000cf4  PowerCC26XX_config                                                        
00005175  PowerCC26XX_doCalibrate                                                   
00008b01  PowerCC26XX_initiateCalibration                                           
20003dfc  PowerCC26XX_module                                                        
0000ba69  PowerCC26XX_schedulerDisable                                              
0000ba89  PowerCC26XX_schedulerRestore                                              
00006799  PowerCC26XX_standbyPolicy                                                 
20003898  PowerCC26XX_swiKey                                                        
20003894  PowerCC26XX_taskKey                                                       
0000c0e9  Power_getConstraintMask                                                   
0000c0f5  Power_getDependencyCount                                                  
0000bb67  Power_getTransitionLatency                                                
0000bda5  Power_idleFunc                                                            
00005e91  Power_init                                                                
0000b705  Power_registerNotify                                                      
0000b0fd  Power_releaseConstraint                                                   
00006f01  Power_releaseDependency                                                   
0000b401  Power_setConstraint                                                       
000072a9  Power_setDependency                                                       
00004281  Power_sleep                                                               
0000baa9  Power_unregisterNotify                                                    
000082e1  RFQueue_defineQueue                                                       
0000a77d  ResetISR                                                                  
0000bfad  RingBuf_construct                                                         
0000ac13  RingBuf_get                                                               
0000a6f5  RingBuf_put                                                               
UNDEFED   SHT$$INIT_ARRAY$$Base                                                     
UNDEFED   SHT$$INIT_ARRAY$$Limit                                                    
00009fa1  SPICC26XXDMA_close                                                        
00007de5  SPICC26XXDMA_control                                                      
00000d0c  SPICC26XXDMA_fxnTable                                                     
0000c083  SPICC26XXDMA_init                                                         
00005c51  SPICC26XXDMA_open                                                         
00003add  SPICC26XXDMA_transfer                                                     
000066b1  SPICC26XXDMA_transferCancel                                               
0000bf49  SPI_Params_init                                                           
00000c20  SPI_config                                                                
00000db1  SPI_count                                                                 
00000c68  SPI_defaultParams                                                         
0000aa15  SPI_init                                                                  
0000aa55  SPI_open                                                                  
0000c175  SPI_transfer                                                              
0000b755  SafeHapiVoid                                                              
0000b62d  SemaphoreP_constructBinary                                                
0000c213  SemaphoreP_destruct                                                       
0000bfbf  SemaphoreP_pend                                                           
0000c217  SemaphoreP_post                                                           
0000c045  SwiP_Params_init                                                          
0000ad09  SwiP_construct                                                            
0000c21b  SwiP_destruct                                                             
0000c21f  SwiP_disable                                                              
0000c223  SwiP_getTrigger                                                           
0000c227  SwiP_or                                                                   
0000c22b  SwiP_post                                                                 
1001b5dd  SwiP_restore                                                              
000080b1  UARTCC26XX_close                                                          
00009ae5  UARTCC26XX_control                                                        
00000bf8  UARTCC26XX_fxnTable                                                       
00005fa5  UARTCC26XX_hwiIntFxn                                                      
0000bdbd  UARTCC26XX_init                                                           
000055d9  UARTCC26XX_open                                                           
00005d75  UARTCC26XX_read                                                           
00008de1  UARTCC26XX_readCancel                                                     
0000c1d7  UARTCC26XX_readPolling                                                    
0000ae6d  UARTCC26XX_swiIntFxn                                                      
000062d5  UARTCC26XX_write                                                          
0000813d  UARTCC26XX_writeCancel                                                    
0000c1dd  UARTCC26XX_writePolling                                                   
0000bdd5  UART_Params_init                                                          
00000d24  UART_config                                                               
00000db0  UART_count                                                                
00000c44  UART_defaultParams                                                        
0000aa95  UART_init                                                                 
0000aad5  UART_open                                                                 
0000c17f  UART_read                                                                 
0000c189  UART_write                                                                
0000aff5  UDMACC26XX_close                                                          
00000d7c  UDMACC26XX_config                                                         
0000c193  UDMACC26XX_hwiIntFxn                                                      
00009d1d  UDMACC26XX_open                                                           
20004608  V_bmm150_maual_auto_condition_u8                                          
2000460c  V_fifo_time_U32                                                           
00000db3  Watchdog_count                                                            
00000000  __ASM__                                                                   
2000304c  __CIOBUF_                                                                 
0000007f  __ISA__                                                                   
00000091  __PLAT__                                                                  
20005000  __STACK_END                                                               
00000300  __STACK_SIZE                                                              
20005000  __STACK_TOP                                                               
000000b8  __TARG__                                                                  
0000c728  __TI_CINIT_Base                                                           
0000c7a8  __TI_CINIT_Limit                                                          
0000c6c8  __TI_Handler_Table_Base                                                   
0000c6d4  __TI_Handler_Table_Limit                                                  
00007751  __TI_auto_init                                                            
00004b6d  __TI_cleanup                                                              
200045e0  __TI_cleanup_ptr                                                          
00007af9  __TI_closefile                                                            
00008f19  __TI_decompress_lzss                                                      
0000c091  __TI_decompress_none                                                      
00006cb5  __TI_doflush                                                              
200045e4  __TI_dtors_ptr                                                            
200045e8  __TI_enable_exit_profile_output                                           
200045d0  __TI_ft_end                                                               
ffffffff  __TI_pprof_out_hndl                                                       
00001d1d  __TI_printfi                                                              
ffffffff  __TI_prof_data_size                                                       
ffffffff  __TI_prof_data_start                                                      
0000746f  __TI_rd_ok                                                                
000090eb  __TI_readmsg                                                              
0000c3f8  __TI_static_base__                                                        
20003524  __TI_tmpnams                                                              
000090b9  __TI_writemsg                                                             
0000740d  __TI_wrt_ok                                                               
0000c101  __TI_zero_init                                                            
000000dd  __TRDR__                                                                  
000083f1  __aeabi_cdcmpeq                                                           
000083f1  __aeabi_cdcmple                                                           
00008477  __aeabi_cdrcmple                                                          
0000a665  __aeabi_d2iz                                                              
0000a805  __aeabi_d2uiz                                                             
00004e2f  __aeabi_dadd                                                              
000059e9  __aeabi_ddiv                                                              
000063d1  __aeabi_dmul                                                              
00004e25  __aeabi_dsub                                                              
0000af15  __aeabi_f2d                                                               
0000af4d  __aeabi_f2iz                                                              
0000b29d  __aeabi_f2uiz                                                             
00007cc1  __aeabi_fdiv                                                              
000085f9  __aeabi_fmul                                                              
0000b521  __aeabi_i2d                                                               
00004fdb  __aeabi_idiv0                                                             
0000be1d  __aeabi_lmul                                                              
00008673  __aeabi_memclr                                                            
00008673  __aeabi_memclr4                                                           
00008673  __aeabi_memclr8                                                           
0000792d  __aeabi_memcpy                                                            
0000792d  __aeabi_memcpy4                                                           
0000792d  __aeabi_memcpy8                                                           
00008675  __aeabi_memset                                                            
00008675  __aeabi_memset4                                                           
00008675  __aeabi_memset8                                                           
200045dc  __aeabi_stderr                                                            
200045d4  __aeabi_stdin                                                             
200045d8  __aeabi_stdout                                                            
0000b905  __aeabi_ui2f                                                              
0000ab55  __aeabi_uidiv                                                             
0000ab55  __aeabi_uidivmod                                                          
000046c1  __aeabi_uldivmod                                                          
ffffffff  __binit__                                                                 
ffffffff  __c_args__                                                                
0001ffa8  __ccfg                                                                    
20004d00  __stack                                                                   
0000be05  _args_main                                                                
0000a77d  _c_int00                                                                  
0000097c  _ctypes_                                                                  
200041b0  _device                                                                   
20003f10  _ftable                                                                   
200045f8  _lock                                                                     
0000bf7f  _nop                                                                      
0000bf77  _register_lock                                                            
0000bf71  _register_unlock                                                          
200043a0  _stream                                                                   
200045fc  _unlock                                                                   
20001d20  accel_fifo                                                                
200038b4  accelxyz                                                                  
0000a4f5  atoi                                                                      
ffffffff  binit                                                                     
00008e49  bmi160_bmm150_mag_compensate_X                                            
00008eb1  bmi160_bmm150_mag_compensate_Y                                            
00009d79  bmi160_bmm150_mag_compensate_Z                                            
0000ac51  bmi160_bmm150_mag_compensate_xyz                                          
000044a5  bmi160_bmm150_mag_interface_init                                          
000061c9  bmi160_bmm150_mag_set_power_mode                                          
00008b6d  bmi160_bmm150_mag_wakeup                                                  
000025f9  bmi160_config_running_mode                                                
0000bf5d  bmi160_delay_ms                                                           
0000b8bd  bmi160_fifo_data                                                          
0000b131  bmi160_get_accel_data_rdy                                                 
0000b165  bmi160_get_if_mode                                                        
0000b199  bmi160_get_mag_manual_enable                                              
0000b1cd  bmi160_get_mag_power_mode_stat                                            
0000b201  bmi160_get_paging_enable                                                  
0000b235  bmi160_get_pullup_configuration                                           
0000b269  bmi160_get_target_page                                                    
0000b431  bmi160_i2c_burst_read                                                     
0000b461  bmi160_i2c_bus_read                                                       
0000a409  bmi160_i2c_bus_write                                                      
0000ab15  bmi160_init                                                               
0000a61d  bmi160_initialize_sensor                                                  
00009251  bmi160_interrupt_configuration                                            
0000a105  bmi160_read_accel_xyz                                                     
000030e5  bmi160_read_bmm150_mag_trim                                               
00002d09  bmi160_read_fifo_header_data                                              
0000a15d  bmi160_read_gyro_xyz                                                      
000084fd  bmi160_read_mag_xyzr                                                      
0000b77d  bmi160_read_reg                                                           
000092b5  bmi160_set_accel_bw                                                       
00009319  bmi160_set_accel_output_data_rate                                         
000089b1  bmi160_set_accel_range                                                    
00006b11  bmi160_set_bmm150_mag_and_secondary_if_power_mode                         
000048b5  bmi160_set_bmm150_mag_presetmode                                          
0000b7a5  bmi160_set_command_register                                               
0000937d  bmi160_set_fifo_accel_enable                                              
000093e1  bmi160_set_fifo_gyro_enable                                               
00009445  bmi160_set_fifo_header_enable                                             
000094a9  bmi160_set_fifo_mag_enable                                                
0000950d  bmi160_set_fifo_stop_on_full                                              
00009571  bmi160_set_fifo_time_enable                                               
0000b7cd  bmi160_set_fifo_wm                                                        
000095d5  bmi160_set_gyro_bw                                                        
000086ed  bmi160_set_gyro_output_data_rate                                          
00009639  bmi160_set_gyro_sleep_state                                               
0000969d  bmi160_set_gyro_sleep_trigger                                             
00009701  bmi160_set_gyro_wakeup_intr                                               
00009765  bmi160_set_gyro_wakeup_trigger                                            
00009dd5  bmi160_set_i2c_device_addr                                                
000097c9  bmi160_set_if_mode                                                        
00005305  bmi160_set_intr_enable_0                                                  
000071f1  bmi160_set_intr_enable_2                                                  
00007e75  bmi160_set_intr_fifo_wm                                                   
00007f05  bmi160_set_intr_level                                                     
00009b45  bmi160_set_mag_manual_enable                                              
0000982d  bmi160_set_mag_output_data_rate                                           
0000b7f5  bmi160_set_mag_read_addr                                                  
0000b81d  bmi160_set_mag_write_addr                                                 
0000b845  bmi160_set_mag_write_data                                                 
00007f95  bmi160_set_output_enable                                                  
00009891  bmi160_set_paging_enable                                                  
000098f5  bmi160_set_pullup_configuration                                           
00009959  bmi160_set_target_page                                                    
0000b8e1  bmi160_write_reg                                                          
20000520  buffers                                                                   
0000aea5  buffers_init                                                              
00009e8d  close                                                                     
0000a541  copy_in                                                                   
0000c1b5  copysign                                                                  
0000c1b5  copysignl                                                                 
200038a4  dataQueue                                                                 
2000387b  driverlib_release_0_49471                                                 
2000443c  errno                                                                     
20004668  factor                                                                    
00007b5f  fclose                                                                    
00006d01  fflush                                                                    
00008a21  finddevice                                                                
00004bc3  fopen                                                                     
00007b91  fputc                                                                     
0000bc65  free                                                                      
200038c4  freeMailbox                                                               
00004b99  freopen                                                                   
00009ee9  frexp                                                                     
00009ee9  frexpl                                                                    
00009a21  fseek                                                                     
2000466c  gRange                                                                    
00009e31  getWIP                                                                    
00008a4b  getdevice                                                                 
2000208c  gyro_fifo                                                                 
200038ba  gyroxyz                                                                   
200038c8  i2c                                                                       
00000d3c  i2cCC26xxHWAttrs                                                          
2000337c  i2cCC26xxObjects                                                          
00008369  i2cSensorsInit                                                            
200037e8  i2cTransaction                                                            
0000b491  i2c_routine                                                               
200038cc  incomingBuffer                                                            
00006be5  ldexp                                                                     
00006be5  ldexpl                                                                    
0000b86d  lseek                                                                     
0000a313  ltoa                                                                      
200023f8  mag_fifo                                                                  
0000735d  main                                                                      
20004678  main_func_sp                                                              
0000b54f  malloc                                                                    
0000bc7f  memccpy                                                                   
0000792d  memcpy                                                                    
0000867b  memset                                                                    
00007135  open                                                                      
200038d0  packetReceivedSemaphore                                                   
20003804  packetReceivedSemaphoreStruct                                             
200038ac  parmbuf                                                                   
20003d80  pinHandleTable                                                            
20003cec  pinLowerBound                                                             
20003ce8  pinUpperBound                                                             
00007b91  putc                                                                      
00007c15  putchar                                                                   
000064cd  radioSetup_init                                                           
20004228  radio_cmd_fs                                                              
20004000  radio_cmd_prop_div_setup                                                  
200040a0  radio_cmd_prop_rx                                                         
20004288  radio_cmd_prop_tx                                                         
20004130  radio_cmd_prop_tx_adv                                                     
20004488  radio_mode                                                                
00007891  readDataFunction                                                          
200038d4  readEntry                                                                 
200038d8  readyBuffer                                                               
00007079  receive_init                                                              
0000b659  remove                                                                    
00000a7e  resourceDB                                                                
20003788  rxBuffer                                                                  
20003834  s_bmi160                                                                  
00006be5  scalbn                                                                    
00006be5  scalbnl                                                                   
1001c145  scifOsalEnterCriticalSection                                              
1001c215  scifOsalLeaveCriticalSection                                              
000081c9  setWEN                                                                    
00006959  setvbuf                                                                   
00000b54  spiCC26XXDMAHWAttrs                                                       
20002d68  spiCC26XXDMAObjects                                                       
0000a265  spiFlashEraseChip                                                         
000088c9  spiFlashReadPage                                                          
00008765  spiFlashWritePage                                                         
00009121  spiFlash_init                                                             
200038dc  spiHandle                                                                 
2000316c  spiRxBuffer                                                               
20003848  spiTransaction                                                            
20003274  spiTxBuffer                                                               
00009c05  sprintf                                                                   
0000bef1  strchr                                                                    
0000be35  strcmp                                                                    
0000bf07  strcpy                                                                    
0000bf85  strlen                                                                    
0000b02b  strncpy                                                                   
20003664  testTask                                                                  
200001a4  ti_sysbios_BIOS_Module__state__V                                          
1001bc25  ti_sysbios_BIOS_RtsGateProxy_Handle__label__S                             
1001bc25  ti_sysbios_BIOS_RtsGateProxy_Handle__label__S__mangled__                  
1001bab5  ti_sysbios_BIOS_RtsGateProxy_Object__delete__S                            
1001c175  ti_sysbios_BIOS_RtsGateProxy_Params__init__S                              
1001c175  ti_sysbios_BIOS_RtsGateProxy_Params__init__S__mangled__                   
1001c245  ti_sysbios_BIOS_RtsGateProxy_enter__E                                     
1001c249  ti_sysbios_BIOS_RtsGateProxy_leave__E                                     
1001c271  ti_sysbios_BIOS_RtsGateProxy_query__E                                     
1001c271  ti_sysbios_BIOS_RtsGateProxy_query__E__mangled__                          
0000b4f1  ti_sysbios_BIOS_atExitFunc__I                                             
0000bf1d  ti_sysbios_BIOS_exitFunc__I                                               
1001c031  ti_sysbios_BIOS_exit__E                                                   
1001bff5  ti_sysbios_BIOS_getCpuFreq__E                                             
00005b1f  ti_sysbios_BIOS_linkedWithIncorrectBootLibrary__E                         
000060b7  ti_sysbios_BIOS_nullFunc__I                                               
0000b929  ti_sysbios_BIOS_registerRTSLock__I                                        
0000b94d  ti_sysbios_BIOS_removeRTSLock__I                                          
0000bac9  ti_sysbios_BIOS_rtsLock__I                                                
0000be4d  ti_sysbios_BIOS_rtsUnlock__I                                              
1001c041  ti_sysbios_BIOS_setThreadType__E                                          
0000b2d1  ti_sysbios_BIOS_startFunc__I                                              
1001c051  ti_sysbios_BIOS_start__E                                                  
000074b9  ti_sysbios_family_arm_cc26xx_Boot_trimDevice                              
00001406  ti_sysbios_family_arm_cc26xx_Timer_Module__id__C                          
1001bb45  ti_sysbios_family_arm_cc26xx_Timer_Module__startupDone__S                 
200001e4  ti_sysbios_family_arm_cc26xx_Timer_Module__state__V                       
1001ba6d  ti_sysbios_family_arm_cc26xx_Timer_Module_startup__E                      
20004440  ti_sysbios_family_arm_cc26xx_Timer_Object__table__V                       
0000bae9  ti_sysbios_family_arm_cc26xx_Timer_dynamicStub__E                         
0000c237  ti_sysbios_family_arm_cc26xx_Timer_getCount64__E                          
0000af85  ti_sysbios_family_arm_cc26xx_Timer_getCurrentTick__E                      
1001c24d  ti_sysbios_family_arm_cc26xx_Timer_getExpiredTicks__E                     
0000b971  ti_sysbios_family_arm_cc26xx_Timer_getMaxTicks__E                         
1001c251  ti_sysbios_family_arm_cc26xx_Timer_getPeriod__E                           
0000b305  ti_sysbios_family_arm_cc26xx_Timer_initDevice__I                          
1001a465  ti_sysbios_family_arm_cc26xx_Timer_periodicStub__E                        
1001b765  ti_sysbios_family_arm_cc26xx_Timer_postInit__I                            
0000b36d  ti_sysbios_family_arm_cc26xx_Timer_setNextTick__E                         
1001c255  ti_sysbios_family_arm_cc26xx_Timer_setPeriod__E                           
0000ab95  ti_sysbios_family_arm_cc26xx_Timer_setThreshold__I                        
0000893d  ti_sysbios_family_arm_cc26xx_Timer_start__E                               
00001384  ti_sysbios_family_arm_cc26xx_Timer_startupNeeded__C                       
1001b791  ti_sysbios_family_arm_cc26xx_Timer_startup__E                             
200001ec  ti_sysbios_family_arm_cc26xx_TimestampProvider_Module__state__V           
1001bb65  ti_sysbios_family_arm_cc26xx_TimestampProvider_Module_startup__E          
0000c09f  ti_sysbios_family_arm_cc26xx_TimestampProvider_get32__E                   
1001b9cd  ti_sysbios_family_arm_cc26xx_TimestampProvider_get64__E                   
1001c12b  ti_sysbios_family_arm_cc26xx_TimestampProvider_getFreq__E                 
00001408  ti_sysbios_family_arm_cc26xx_TimestampProvider_useClockTimer__C           
00001388  ti_sysbios_family_arm_m3_Hwi_E_alreadyDefined__C                          
0000138c  ti_sysbios_family_arm_m3_Hwi_E_hwiLimitExceeded__C                        
1001aed1  ti_sysbios_family_arm_m3_Hwi_Instance_finalize__E                         
1001a3c5  ti_sysbios_family_arm_m3_Hwi_Instance_init__E                             
2000466e  ti_sysbios_family_arm_m3_Hwi_Module_State_0_excActive__A                  
20004680  ti_sysbios_family_arm_m3_Hwi_Module_State_0_excContext__A                 
20004684  ti_sysbios_family_arm_m3_Hwi_Module_State_0_excStack__A                   
0000140a  ti_sysbios_family_arm_m3_Hwi_Module__id__C                                
20004610  ti_sysbios_family_arm_m3_Hwi_Module__root__V                              
1001bb85  ti_sysbios_family_arm_m3_Hwi_Module__startupDone__S                       
20000144  ti_sysbios_family_arm_m3_Hwi_Module__state__V                             
1001b1c1  ti_sysbios_family_arm_m3_Hwi_Module_startup__E                            
00001390  ti_sysbios_family_arm_m3_Hwi_NUM_INTERRUPTS__C                            
000011d0  ti_sysbios_family_arm_m3_Hwi_Object__DESC__C                              
00001070  ti_sysbios_family_arm_m3_Hwi_Object__PARAMS__C                            
00001394  ti_sysbios_family_arm_m3_Hwi_Object__count__C                             
1001aab1  ti_sysbios_family_arm_m3_Hwi_Object__create__S                            
1001bba5  ti_sysbios_family_arm_m3_Hwi_Object__delete__S                            
1001be65  ti_sysbios_family_arm_m3_Hwi_Object__destruct__S                          
1001b7bd  ti_sysbios_family_arm_m3_Hwi_Object__get__S                               
00001398  ti_sysbios_family_arm_m3_Hwi_Object__table__C                             
200045a0  ti_sysbios_family_arm_m3_Hwi_Object__table__V                             
1001c139  ti_sysbios_family_arm_m3_Hwi_Params__init__S                              
0000139c  ti_sysbios_family_arm_m3_Hwi_ccr__C                                       
0000bc11  ti_sysbios_family_arm_m3_Hwi_clearInterrupt__E                            
1001af29  ti_sysbios_family_arm_m3_Hwi_construct                                    
0000ad81  ti_sysbios_family_arm_m3_Hwi_construct2__E                                
1001ab15  ti_sysbios_family_arm_m3_Hwi_create                                       
1001c259  ti_sysbios_family_arm_m3_Hwi_delete                                       
1001c25d  ti_sysbios_family_arm_m3_Hwi_destruct                                     
1001c145  ti_sysbios_family_arm_m3_Hwi_disableFxn__E                                
1001b251  ti_sysbios_family_arm_m3_Hwi_disableInterrupt__E                          
1001aa49  ti_sysbios_family_arm_m3_Hwi_dispatchC__I                                 
2000345c  ti_sysbios_family_arm_m3_Hwi_dispatchTable                                
1001c899  ti_sysbios_family_arm_m3_Hwi_dispatch__I                                  
1001c1f7  ti_sysbios_family_arm_m3_Hwi_doSwiRestore__I                              
1001c20f  ti_sysbios_family_arm_m3_Hwi_doTaskRestore__I                             
1001c151  ti_sysbios_family_arm_m3_Hwi_enableFxn__E                                 
1001b295  ti_sysbios_family_arm_m3_Hwi_enableInterrupt__E                           
1001c9fd  ti_sysbios_family_arm_m3_Hwi_excHandlerAsm__I                             
000013a0  ti_sysbios_family_arm_m3_Hwi_excHandlerFunc__C                            
1001bbc5  ti_sysbios_family_arm_m3_Hwi_excHandler__I                                
1001b461  ti_sysbios_family_arm_m3_Hwi_getStackInfo__E                              
1001a695  ti_sysbios_family_arm_m3_Hwi_initNVIC__E                                  
1001c9b5  ti_sysbios_family_arm_m3_Hwi_initStacks__E                                
000013a4  ti_sysbios_family_arm_m3_Hwi_nullIsrFunc__C                               
000013a8  ti_sysbios_family_arm_m3_Hwi_numSparseInterrupts__C                       
e000e000  ti_sysbios_family_arm_m3_Hwi_nvic                                         
1001ca3b  ti_sysbios_family_arm_m3_Hwi_pendSV__I                                    
1001c061  ti_sysbios_family_arm_m3_Hwi_plug__E                                      
1001a315  ti_sysbios_family_arm_m3_Hwi_postInit__I                                  
000013ac  ti_sysbios_family_arm_m3_Hwi_priGroup__C                                  
20000000  ti_sysbios_family_arm_m3_Hwi_ramVectors                                   
00000000  ti_sysbios_family_arm_m3_Hwi_resetVectors                                 
1001c215  ti_sysbios_family_arm_m3_Hwi_restoreFxn__E                                
1001ca53  ti_sysbios_family_arm_m3_Hwi_return                                       
1001be81  ti_sysbios_family_arm_m3_Hwi_setPriority__E                               
1001c1ff  ti_sysbios_family_arm_m3_Hwi_startup__E                                   
00000db4  ti_sysbios_family_arm_m3_Hwi_swiDisable__C                                
00000db8  ti_sysbios_family_arm_m3_Hwi_swiRestoreHwi__C                             
1001c009  ti_sysbios_family_arm_m3_Hwi_switchFromBootStack__E                       
1001c261  ti_sysbios_family_arm_m3_TaskSupport_Module__startupDone__S               
1001c969  ti_sysbios_family_arm_m3_TaskSupport_buildTaskStack                       
1001c15d  ti_sysbios_family_arm_m3_TaskSupport_getStackAlignment__E                 
1001ca55  ti_sysbios_family_arm_m3_TaskSupport_glue                                 
000013b0  ti_sysbios_family_arm_m3_TaskSupport_stackAlignment__C                    
1001b499  ti_sysbios_family_arm_m3_TaskSupport_start__E                             
1001ca65  ti_sysbios_family_arm_m3_TaskSupport_swap__E                              
00000dbc  ti_sysbios_family_arm_m3_Timer_E_cannotSupport__C                         
00000dd4  ti_sysbios_family_arm_m3_Timer_Module__id__C                              
0000be65  ti_sysbios_family_arm_m3_Timer_Module__startupDone__F                     
0000be65  ti_sysbios_family_arm_m3_Timer_Module__startupDone__S                     
200045ec  ti_sysbios_family_arm_m3_Timer_Module__state__V                           
0000b995  ti_sysbios_family_arm_m3_Timer_Module_startup__E                          
0000b339  ti_sysbios_family_arm_m3_Timer_initDevice__I                              
0000b9b9  ti_sysbios_family_arm_m3_Timer_postInit__I                                
0000a6ad  ti_sysbios_family_arm_m3_Timer_setPeriod__E                               
0000a8d1  ti_sysbios_family_arm_m3_Timer_start__E                                   
00000dc0  ti_sysbios_family_arm_m3_Timer_startupNeeded__C                           
0000b9dd  ti_sysbios_family_arm_m3_Timer_startup__E                                 
0000bc2d  ti_sysbios_family_arm_m3_Timer_stop__E                                    
1001ca1d  ti_sysbios_family_xxx_Hwi_switchAndRunFunc                                
1001bbe5  ti_sysbios_gates_GateHwi_Handle__label__S                                 
1001b45f  ti_sysbios_gates_GateHwi_Instance_init__E                                 
0000111c  ti_sysbios_gates_GateHwi_Module__FXNS__C                                  
0000140c  ti_sysbios_gates_GateHwi_Module__id__C                                    
20004618  ti_sysbios_gates_GateHwi_Module__root__V                                  
000011f0  ti_sysbios_gates_GateHwi_Object__DESC__C                                  
00001330  ti_sysbios_gates_GateHwi_Object__PARAMS__C                                
1001ba91  ti_sysbios_gates_GateHwi_Object__create__S                                
1001bc05  ti_sysbios_gates_GateHwi_Object__delete__S                                
1001c169  ti_sysbios_gates_GateHwi_enter__E                                         
1001c21b  ti_sysbios_gates_GateHwi_leave__E                                         
1001c265  ti_sysbios_gates_GateHwi_query__E                                         
1001bc25  ti_sysbios_gates_GateMutex_Handle__label__S                               
000014d0  ti_sysbios_gates_GateMutex_Instance_State_sem__O                          
1001c071  ti_sysbios_gates_GateMutex_Instance_finalize__E                           
1001be9d  ti_sysbios_gates_GateMutex_Instance_init__E                               
00001140  ti_sysbios_gates_GateMutex_Module__FXNS__C                                
0000140e  ti_sysbios_gates_GateMutex_Module__id__C                                  
20004620  ti_sysbios_gates_GateMutex_Module__root__V                                
00001210  ti_sysbios_gates_GateMutex_Object__DESC__C                                
00001348  ti_sysbios_gates_GateMutex_Object__PARAMS__C                              
1001b645  ti_sysbios_gates_GateMutex_Object__create__S                              
1001bab5  ti_sysbios_gates_GateMutex_Object__delete__S                              
1001bc45  ti_sysbios_gates_GateMutex_Object__destruct__S                            
200044c8  ti_sysbios_gates_GateMutex_Object__table__V                               
1001c175  ti_sysbios_gates_GateMutex_Params__init__S                                
1001b7e9  ti_sysbios_gates_GateMutex_construct                                      
1001b675  ti_sysbios_gates_GateMutex_create                                         
1001c269  ti_sysbios_gates_GateMutex_delete                                         
1001c26d  ti_sysbios_gates_GateMutex_destruct                                       
1001b6a5  ti_sysbios_gates_GateMutex_enter__E                                       
1001bf99  ti_sysbios_gates_GateMutex_leave__E                                       
1001c271  ti_sysbios_gates_GateMutex_query__E                                       
1001c275  ti_sysbios_hal_Hwi_HwiProxy_Module__startupDone__S                        
1001bb85  ti_sysbios_hal_Hwi_HwiProxy_Module__startupDone__S__mangled__             
1001c081  ti_sysbios_hal_Hwi_HwiProxy_Object__create__S                             
1001bba5  ti_sysbios_hal_Hwi_HwiProxy_Object__delete__S                             
1001c139  ti_sysbios_hal_Hwi_HwiProxy_Params__init__S                               
1001c139  ti_sysbios_hal_Hwi_HwiProxy_Params__init__S__mangled__                    
0000bc11  ti_sysbios_hal_Hwi_HwiProxy_clearInterrupt__E                             
1001be45  ti_sysbios_hal_Hwi_HwiProxy_create                                        
1001c279  ti_sysbios_hal_Hwi_HwiProxy_delete                                        
1001c27d  ti_sysbios_hal_Hwi_HwiProxy_disableInterrupt__E                           
1001b251  ti_sysbios_hal_Hwi_HwiProxy_disableInterrupt__E__mangled__                
1001c281  ti_sysbios_hal_Hwi_HwiProxy_enableInterrupt__E                            
1001b295  ti_sysbios_hal_Hwi_HwiProxy_enableInterrupt__E__mangled__                 
1001c285  ti_sysbios_hal_Hwi_HwiProxy_getStackInfo__E                               
1001b461  ti_sysbios_hal_Hwi_HwiProxy_getStackInfo__E__mangled__                    
1001c289  ti_sysbios_hal_Hwi_HwiProxy_startup__E                                    
1001c1ff  ti_sysbios_hal_Hwi_HwiProxy_startup__E__mangled__                         
1001c28d  ti_sysbios_hal_Hwi_HwiProxy_switchFromBootStack__E                        
1001c009  ti_sysbios_hal_Hwi_HwiProxy_switchFromBootStack__E__mangled__             
1001c1ed  ti_sysbios_hal_Hwi_Instance_finalize__E                                   
1001b9f5  ti_sysbios_hal_Hwi_Instance_init__E                                       
20004628  ti_sysbios_hal_Hwi_Module__root__V                                        
1001c01d  ti_sysbios_hal_Hwi_Module_startup__E                                      
00001230  ti_sysbios_hal_Hwi_Object__DESC__C                                        
000010a0  ti_sysbios_hal_Hwi_Object__PARAMS__C                                      
1001bc65  ti_sysbios_hal_Hwi_Object__delete__S                                      
0000bc11  ti_sysbios_hal_Hwi_clearInterrupt__E                                      
1001ab79  ti_sysbios_hal_Hwi_create                                                 
1001c291  ti_sysbios_hal_Hwi_delete                                                 
1001c27d  ti_sysbios_hal_Hwi_disableInterrupt__E                                    
1001c27d  ti_sysbios_hal_Hwi_disableInterrupt__E                                    
1001c281  ti_sysbios_hal_Hwi_enableInterrupt__E                                     
1001c281  ti_sysbios_hal_Hwi_enableInterrupt__E                                     
1001c285  ti_sysbios_hal_Hwi_getStackInfo__E                                        
1001c285  ti_sysbios_hal_Hwi_getStackInfo__E                                        
1001b815  ti_sysbios_hal_Hwi_initStack                                              
1001c289  ti_sysbios_hal_Hwi_startup__E                                             
1001c289  ti_sysbios_hal_Hwi_startup__E                                             
1001c295  ti_sysbios_hal_Hwi_switchFromBootStack__E                                 
1001c295  ti_sysbios_hal_Hwi_switchFromBootStack__E                                 
0000bfd1  ti_sysbios_hal_Timer_Module_startup__E                                    
0000be65  ti_sysbios_hal_Timer_TimerProxy_Module__startupDone__S                    
0000b9dd  ti_sysbios_hal_Timer_TimerProxy_startup__E                                
0000b9dd  ti_sysbios_hal_Timer_startup__E                                           
000013b4  ti_sysbios_heaps_HeapMem_E_memory__C                                      
1001bc85  ti_sysbios_heaps_HeapMem_Handle__label__S                                 
20001120  ti_sysbios_heaps_HeapMem_Instance_State_0_buf__A                          
1001b4d1  ti_sysbios_heaps_HeapMem_Instance_init__E                                 
1001bc25  ti_sysbios_heaps_HeapMem_Module_GateProxy_Handle__label__S                
1001bc25  ti_sysbios_heaps_HeapMem_Module_GateProxy_Handle__label__S__mangled__     
1001bab5  ti_sysbios_heaps_HeapMem_Module_GateProxy_Object__delete__S               
1001c175  ti_sysbios_heaps_HeapMem_Module_GateProxy_Params__init__S                 
1001c175  ti_sysbios_heaps_HeapMem_Module_GateProxy_Params__init__S__mangled__      
1001c299  ti_sysbios_heaps_HeapMem_Module_GateProxy_enter__E                        
1001c29d  ti_sysbios_heaps_HeapMem_Module_GateProxy_leave__E                        
1001c271  ti_sysbios_heaps_HeapMem_Module_GateProxy_query__E                        
1001c271  ti_sysbios_heaps_HeapMem_Module_GateProxy_query__E__mangled__             
000010cc  ti_sysbios_heaps_HeapMem_Module__FXNS__C                                  
000013b8  ti_sysbios_heaps_HeapMem_Module__gateObj__C                               
00001410  ti_sysbios_heaps_HeapMem_Module__id__C                                    
20004630  ti_sysbios_heaps_HeapMem_Module__root__V                                  
00001250  ti_sysbios_heaps_HeapMem_Object__DESC__C                                  
00001164  ti_sysbios_heaps_HeapMem_Object__PARAMS__C                                
000013bc  ti_sysbios_heaps_HeapMem_Object__count__C                                 
1001b841  ti_sysbios_heaps_HeapMem_Object__create__S                                
1001bca5  ti_sysbios_heaps_HeapMem_Object__delete__S                                
1001b86d  ti_sysbios_heaps_HeapMem_Object__get__S                                   
000013c0  ti_sysbios_heaps_HeapMem_Object__table__C                                 
200045b8  ti_sysbios_heaps_HeapMem_Object__table__V                                 
1001a195  ti_sysbios_heaps_HeapMem_alloc__E                                         
1001a791  ti_sysbios_heaps_HeapMem_free__E                                          
1001b209  ti_sysbios_heaps_HeapMem_getStats__E                                      
1001b541  ti_sysbios_heaps_HeapMem_init__I                                          
1001c2a1  ti_sysbios_heaps_HeapMem_isBlocking__E                                    
000013c4  ti_sysbios_heaps_HeapMem_reqAlign__C                                      
1001c101  ti_sysbios_heaps_HeapMem_restore__E                                       
1001bfc9  ti_sysbios_knl_Clock_Instance_finalize__E                                 
1001b509  ti_sysbios_knl_Clock_Instance_init__E                                     
000014d4  ti_sysbios_knl_Clock_Module_State_clockQ__O                               
20004638  ti_sysbios_knl_Clock_Module__root__V                                      
20000178  ti_sysbios_knl_Clock_Module__state__V                                     
1001bcc5  ti_sysbios_knl_Clock_Module_startup__E                                    
00001270  ti_sysbios_knl_Clock_Object__DESC__C                                      
00001188  ti_sysbios_knl_Clock_Object__PARAMS__C                                    
1001bad9  ti_sysbios_knl_Clock_Object__delete__S                                    
1001bce5  ti_sysbios_knl_Clock_Object__destruct__S                                  
20004560  ti_sysbios_knl_Clock_Object__table__V                                     
1001c181  ti_sysbios_knl_Clock_Params__init__S                                      
1001c2a5  ti_sysbios_knl_Clock_TimerProxy_Module__startupDone__S                    
1001bb45  ti_sysbios_knl_Clock_TimerProxy_Module__startupDone__S__mangled__         
1001c091  ti_sysbios_knl_Clock_TimerProxy_getCurrentTick__E                         
1001c2a9  ti_sysbios_knl_Clock_TimerProxy_getExpiredTicks__E                        
1001c0a1  ti_sysbios_knl_Clock_TimerProxy_getMaxTicks__E                            
1001c2ad  ti_sysbios_knl_Clock_TimerProxy_getPeriod__E                              
1001c0b1  ti_sysbios_knl_Clock_TimerProxy_setNextTick__E                            
1001b791  ti_sysbios_knl_Clock_TimerProxy_startup__E                                
1001b791  ti_sysbios_knl_Clock_TimerProxy_startup__E__mangled__                     
1001ba1d  ti_sysbios_knl_Clock_addI__E                                              
1001b575  ti_sysbios_knl_Clock_construct                                            
1001b3e9  ti_sysbios_knl_Clock_create                                               
1001c2b1  ti_sysbios_knl_Clock_delete                                               
1001c2b5  ti_sysbios_knl_Clock_destruct                                             
0000bf99  ti_sysbios_knl_Clock_doTick__I                                            
0000b685  ti_sysbios_knl_Clock_getTicksUntilInterrupt__E                            
1001b6d5  ti_sysbios_knl_Clock_getTicks__E                                          
1001c18d  ti_sysbios_knl_Clock_getTimerHandle__E                                    
1001be63  ti_sysbios_knl_Clock_logTick__E                                           
1001c2b9  ti_sysbios_knl_Clock_removeI__E                                           
1001beb9  ti_sysbios_knl_Clock_scheduleNextTick__E                                  
000013c8  ti_sysbios_knl_Clock_serviceMargin__C                                     
1001c2bd  ti_sysbios_knl_Clock_setTimeout__E                                        
1001a715  ti_sysbios_knl_Clock_startI__E                                            
1001bfdf  ti_sysbios_knl_Clock_start__E                                             
0000bb09  ti_sysbios_knl_Clock_stop__E                                              
00001414  ti_sysbios_knl_Clock_tickMode__C                                          
00000dc4  ti_sysbios_knl_Clock_tickPeriod__C                                        
00000dc8  ti_sysbios_knl_Clock_triggerClock__C                                      
00007607  ti_sysbios_knl_Clock_triggerFunc__I                                       
1001a809  ti_sysbios_knl_Clock_walkQueueDynamic__E                                  
00007c29  ti_sysbios_knl_Clock_workFuncDynamic__E                                   
1001a881  ti_sysbios_knl_Clock_workFunc__E                                          
00000dcc  ti_sysbios_knl_Idle_funcList__A                                           
00001378  ti_sysbios_knl_Idle_funcList__C                                           
1001c207  ti_sysbios_knl_Idle_loop__E                                               
1001bd05  ti_sysbios_knl_Idle_run__E                                                
000014d8  ti_sysbios_knl_Mailbox_Instance_State_dataQue__O                          
000014dc  ti_sysbios_knl_Mailbox_Instance_State_dataSem__O                          
000014e0  ti_sysbios_knl_Mailbox_Instance_State_freeQue__O                          
000014e4  ti_sysbios_knl_Mailbox_Instance_State_freeSem__O                          
1001a8f9  ti_sysbios_knl_Mailbox_Instance_finalize__E                               
1001a0cd  ti_sysbios_knl_Mailbox_Instance_init__E                                   
20004640  ti_sysbios_knl_Mailbox_Module__root__V                                    
1001b2d9  ti_sysbios_knl_Mailbox_Module_startup__E                                  
00001290  ti_sysbios_knl_Mailbox_Object__DESC__C                                    
0000103c  ti_sysbios_knl_Mailbox_Object__PARAMS__C                                  
000013cc  ti_sysbios_knl_Mailbox_Object__count__C                                   
1001bd25  ti_sysbios_knl_Mailbox_Object__delete__S                                  
1001bed5  ti_sysbios_knl_Mailbox_Object__destruct__S                                
1001b899  ti_sysbios_knl_Mailbox_Object__get__S                                     
000013d0  ti_sysbios_knl_Mailbox_Object__table__C                                   
1001c199  ti_sysbios_knl_Mailbox_Params__init__S                                    
1001af81  ti_sysbios_knl_Mailbox_construct                                          
1001abdd  ti_sysbios_knl_Mailbox_create                                             
1001c2c1  ti_sysbios_knl_Mailbox_delete                                             
1001c2c5  ti_sysbios_knl_Mailbox_destruct                                           
000013d4  ti_sysbios_knl_Mailbox_maxTypeAlign__C                                    
1001a969  ti_sysbios_knl_Mailbox_pend__E                                            
1001b8c5  ti_sysbios_knl_Mailbox_postInit__I                                        
1001a58d  ti_sysbios_knl_Mailbox_post__E                                            
1001c227  ti_sysbios_knl_Queue_Instance_init__E                                     
20004648  ti_sysbios_knl_Queue_Module__root__V                                      
000012b0  ti_sysbios_knl_Queue_Object__DESC__C                                      
00001360  ti_sysbios_knl_Queue_Object__PARAMS__C                                    
000013d8  ti_sysbios_knl_Queue_Object__count__C                                     
1001bd45  ti_sysbios_knl_Queue_Object__delete__S                                    
1001bef1  ti_sysbios_knl_Queue_Object__destruct__S                                  
1001bd65  ti_sysbios_knl_Queue_Object__get__S                                       
000013dc  ti_sysbios_knl_Queue_Object__table__C                                     
1001b8f1  ti_sysbios_knl_Queue_construct                                            
1001b91d  ti_sysbios_knl_Queue_create                                               
1001c2c9  ti_sysbios_knl_Queue_delete                                               
1001c1a5  ti_sysbios_knl_Queue_dequeue__E                                           
1001c2cd  ti_sysbios_knl_Queue_destruct                                             
1001c22d  ti_sysbios_knl_Queue_elemClear__E                                         
1001c10f  ti_sysbios_knl_Queue_empty__E                                             
1001c1b1  ti_sysbios_knl_Queue_enqueue__E                                           
1001bf0d  ti_sysbios_knl_Queue_get__E                                               
1001c2d1  ti_sysbios_knl_Queue_head__E                                              
1001c2d5  ti_sysbios_knl_Queue_next__E                                              
1001bf29  ti_sysbios_knl_Queue_put__E                                               
1001c11d  ti_sysbios_knl_Queue_remove__E                                            
000014e8  ti_sysbios_knl_Semaphore_Instance_State_pendQ__O                          
1001c0c1  ti_sysbios_knl_Semaphore_Instance_finalize__E                             
1001bafd  ti_sysbios_knl_Semaphore_Instance_init__E                                 
20004650  ti_sysbios_knl_Semaphore_Module__root__V                                  
000012d0  ti_sysbios_knl_Semaphore_Object__DESC__C                                  
000011ac  ti_sysbios_knl_Semaphore_Object__PARAMS__C                                
1001bb21  ti_sysbios_knl_Semaphore_Object__delete__S                                
1001bd85  ti_sysbios_knl_Semaphore_Object__destruct__S                              
1001c1bd  ti_sysbios_knl_Semaphore_Params__init__S                                  
1001b705  ti_sysbios_knl_Semaphore_construct                                        
1001b5a9  ti_sysbios_knl_Semaphore_create                                           
1001c2d9  ti_sysbios_knl_Semaphore_delete                                           
1001c2dd  ti_sysbios_knl_Semaphore_destruct                                         
1001b949  ti_sysbios_knl_Semaphore_pendTimeout__I                                   
1001a001  ti_sysbios_knl_Semaphore_pend__E                                          
1001ac41  ti_sysbios_knl_Semaphore_post__E                                          
1001bf97  ti_sysbios_knl_Swi_Instance_finalize__E                                   
1001aca5  ti_sysbios_knl_Swi_Instance_init__E                                       
20004500  ti_sysbios_knl_Swi_Module_State_0_readyQ__A                               
20004658  ti_sysbios_knl_Swi_Module__root__V                                        
200001c8  ti_sysbios_knl_Swi_Module__state__V                                       
1001c233  ti_sysbios_knl_Swi_Module_startup__E                                      
000012f0  ti_sysbios_knl_Swi_Object__DESC__C                                        
000010f4  ti_sysbios_knl_Swi_Object__PARAMS__C                                      
000013e0  ti_sysbios_knl_Swi_Object__count__C                                       
1001bda5  ti_sysbios_knl_Swi_Object__delete__S                                      
1001bf45  ti_sysbios_knl_Swi_Object__destruct__S                                    
1001b975  ti_sysbios_knl_Swi_Object__get__S                                         
000013e4  ti_sysbios_knl_Swi_Object__table__C                                       
20004530  ti_sysbios_knl_Swi_Object__table__V                                       
1001c1c9  ti_sysbios_knl_Swi_Params__init__S                                        
1001b085  ti_sysbios_knl_Swi_construct                                              
0000bc49  ti_sysbios_knl_Swi_construct2__E                                          
1001ad05  ti_sysbios_knl_Swi_create                                                 
1001c2e1  ti_sysbios_knl_Swi_delete                                                 
1001c2e5  ti_sysbios_knl_Swi_destruct                                               
1001c0d1  ti_sysbios_knl_Swi_disable__E                                             
1001c0e1  ti_sysbios_knl_Swi_enabled__E                                             
0000c119  ti_sysbios_knl_Swi_getTrigger__E                                          
000013e8  ti_sysbios_knl_Swi_numPriorities__C                                       
0000be7d  ti_sysbios_knl_Swi_or__E                                                  
1001c2e9  ti_sysbios_knl_Swi_postInit__I                                            
1001b31d  ti_sysbios_knl_Swi_post__E                                                
1001ad61  ti_sysbios_knl_Swi_restoreHwi__E                                          
1001b5dd  ti_sysbios_knl_Swi_restore__E                                             
1001b0d5  ti_sysbios_knl_Swi_runLoop__I                                             
1001afd9  ti_sysbios_knl_Swi_run__I                                                 
1001b031  ti_sysbios_knl_Swi_schedule__I                                            
1001c239  ti_sysbios_knl_Swi_startup__E                                             
20002768  ti_sysbios_knl_Task_Instance_State_0_stack__A                             
1001a4f9  ti_sysbios_knl_Task_Instance_finalize__E                                  
1001a259  ti_sysbios_knl_Task_Instance_init__E                                      
20004688  ti_sysbios_knl_Task_Module_State_0_idleTask__A                            
200042e8  ti_sysbios_knl_Task_Module_State_0_readyQ__A                              
000014ec  ti_sysbios_knl_Task_Module_State_inactiveQ__O                             
20004660  ti_sysbios_knl_Task_Module__root__V                                       
20000100  ti_sysbios_knl_Task_Module__state__V                                      
1001adbd  ti_sysbios_knl_Task_Module_startup__E                                     
00001310  ti_sysbios_knl_Task_Object__DESC__C                                       
00001000  ti_sysbios_knl_Task_Object__PARAMS__C                                     
000013ec  ti_sysbios_knl_Task_Object__count__C                                      
1001bdc5  ti_sysbios_knl_Task_Object__delete__S                                     
1001bf61  ti_sysbios_knl_Task_Object__destruct__S                                   
1001bde5  ti_sysbios_knl_Task_Object__get__S                                        
000013f0  ti_sysbios_knl_Task_Object__table__C                                      
200043f0  ti_sysbios_knl_Task_Object__table__V                                      
1001c1d5  ti_sysbios_knl_Task_Params__init__S                                       
1001c2ed  ti_sysbios_knl_Task_SupportProxy_Module__startupDone__S                   
1001c261  ti_sysbios_knl_Task_SupportProxy_Module__startupDone__S__mangled__        
1001c2f1  ti_sysbios_knl_Task_SupportProxy_getStackAlignment__E                     
1001c15d  ti_sysbios_knl_Task_SupportProxy_getStackAlignment__E__mangled__          
1001c2f5  ti_sysbios_knl_Task_SupportProxy_start__E                                 
1001b499  ti_sysbios_knl_Task_SupportProxy_start__E__mangled__                      
1001c2f9  ti_sysbios_knl_Task_SupportProxy_swap__E                                  
1001ca65  ti_sysbios_knl_Task_SupportProxy_swap__E__mangled__                       
000013f4  ti_sysbios_knl_Task_allBlockedFunc__C                                     
1001b361  ti_sysbios_knl_Task_allBlockedFunction__I                                 
1001b611  ti_sysbios_knl_Task_blockI__E                                             
1001b125  ti_sysbios_knl_Task_construct                                             
1001ae19  ti_sysbios_knl_Task_create                                                
000013f8  ti_sysbios_knl_Task_defaultStackHeap__C                                   
000013fc  ti_sysbios_knl_Task_defaultStackSize__C                                   
1001c2fd  ti_sysbios_knl_Task_delete                                                
1001c301  ti_sysbios_knl_Task_destruct                                              
1001c0f1  ti_sysbios_knl_Task_disable__E                                            
1001c23f  ti_sysbios_knl_Task_enable__E                                             
1001be05  ti_sysbios_knl_Task_enter__I                                              
1001b425  ti_sysbios_knl_Task_exit__E                                               
00001412  ti_sysbios_knl_Task_initStackFlag__C                                      
00001400  ti_sysbios_knl_Task_numConstructedTasks__C                                
1001a611  ti_sysbios_knl_Task_postInit__I                                           
1001b735  ti_sysbios_knl_Task_processVitalTaskFlag__I                               
1001be25  ti_sysbios_knl_Task_restoreHwi__E                                         
1001ba45  ti_sysbios_knl_Task_restore__E                                            
1001b175  ti_sysbios_knl_Task_schedule__I                                           
1001c1e1  ti_sysbios_knl_Task_self__E                                               
1001bf7d  ti_sysbios_knl_Task_sleepTimeout__I                                       
1001a9d9  ti_sysbios_knl_Task_sleep__E                                              
1001ae75  ti_sysbios_knl_Task_startCore__E                                          
1001c305  ti_sysbios_knl_Task_startup__E                                            
1001ca6d  ti_sysbios_knl_Task_swapReturn                                            
1001b9a1  ti_sysbios_knl_Task_unblockI__E                                           
1001bfb1  ti_sysbios_knl_Task_unblock__E                                            
1001b3a5  ti_sysbios_knl_Task_yield__E                                              
00001494  ti_sysbios_rom_ROM_AONRTCChannelEnable                                    
00001498  ti_sysbios_rom_ROM_AONRTCCompareValueSet                                  
0000149c  ti_sysbios_rom_ROM_AONRTCCurrentCompareValueGet                           
000014a0  ti_sysbios_rom_ROM_AONRTCEventClear                                       
000014a4  ti_sysbios_rom_ROM_ti_sysbios_family_arm_cc26xx_Timer_getCount64__E       
000014a8  ti_sysbios_rom_ROM_ti_sysbios_family_arm_cc26xx_Timer_getCurrentTick__E   
000014ac  ti_sysbios_rom_ROM_ti_sysbios_family_arm_cc26xx_Timer_getMaxTicks__E      
000014b0  ti_sysbios_rom_ROM_ti_sysbios_family_arm_cc26xx_Timer_initDevice__I       
000014b4  ti_sysbios_rom_ROM_ti_sysbios_family_arm_cc26xx_Timer_setNextTick__E      
000014b8  ti_sysbios_rom_ROM_ti_sysbios_family_arm_cc26xx_Timer_setThreshold__I     
000014bc  ti_sysbios_rom_ROM_ti_sysbios_family_arm_cc26xx_Timer_start__E            
000014c0  ti_sysbios_rom_ROM_ti_sysbios_family_arm_cc26xx_TimestampProvider_get32__E
000014c4  ti_sysbios_rom_ROM_xdc_runtime_Startup_getState__I                        
000014c8  ti_sysbios_rom_ROM_xdc_runtime_System_SupportProxy_abort__E               
000014cc  ti_sysbios_rom_ROM_xdc_runtime_System_SupportProxy_exit__E                
00007d53  ti_sysbios_rom_cortexm_cc13xx_CC13xx_badRomRevision__E                    
0000be95  ti_sysbios_rom_cortexm_cc13xx_CC13xx_checkRevision__E                     
1001ca97  ti_sysbios_rom_cortexm_cc13xx_CC13xx_getRevision__E                       
20003888  txBuffer                                                                  
00000c88  uartCC26XXHWAttrs                                                         
20002f20  uartCC26XXObjects                                                         
200037a8  uartCC26XXRingBuffer                                                      
200038e0  uartRxMailbox                                                             
00004fdd  uartTasks_init                                                            
200038e4  uartTxMailbox                                                             
00000da8  udmaHWAttrs                                                               
200037c8  udmaObjects                                                               
0000b659  unlink                                                                    
200038e8  v_fifo_data_u8                                                            
0000b895  write                                                                     
00001428  xdc_runtime_Assert_E_assertFailed__C                                      
1001c5a5  xdc_runtime_Assert_raise__I                                               
1001c6e9  xdc_runtime_Core_assignLabel__I                                           
1001c5ed  xdc_runtime_Core_assignParams__I                                          
1001c635  xdc_runtime_Core_constructObject__I                                       
1001c401  xdc_runtime_Core_createObject__I                                          
1001c4f5  xdc_runtime_Core_deleteObject__I                                          
1001c79d  xdc_runtime_Core_destructObject__I                                        
0000142c  xdc_runtime_Error_E_memory__C                                             
20004580  xdc_runtime_Error_IgnoreBlock                                             
1001c7b5  xdc_runtime_Error_check__E                                                
0000bead  xdc_runtime_Error_init__E                                                 
00001430  xdc_runtime_Error_policyFxn__C                                            
1001c483  xdc_runtime_Error_policySpin__E                                           
00001490  xdc_runtime_Error_policy__C                                               
1001c765  xdc_runtime_Error_raiseX__E                                               
1001c881  xdc_runtime_Gate_enterSystem__E                                           
1001c875  xdc_runtime_Gate_leaveSystem__E                                           
00001434  xdc_runtime_IGateProvider_Interface__BASE__C                              
00001438  xdc_runtime_IHeap_Interface__BASE__C                                      
0000143c  xdc_runtime_IModule_Interface__BASE__C                                    
1001bbe5  xdc_runtime_Main_Module_GateProxy_Handle__label__S                        
1001c265  xdc_runtime_Main_Module_GateProxy_query__E                                
00001440  xdc_runtime_Main_Module__diagsEnabled__C                                  
00001444  xdc_runtime_Main_Module__diagsIncluded__C                                 
00001448  xdc_runtime_Main_Module__diagsMask__C                                     
00001488  xdc_runtime_Main_Module__id__C                                            
1001bc85  xdc_runtime_Memory_HeapProxy_Handle__label__S                             
1001bc85  xdc_runtime_Memory_HeapProxy_Handle__label__S__mangled__                  
1001bca5  xdc_runtime_Memory_HeapProxy_Object__delete__S                            
1001c885  xdc_runtime_Memory_HeapProxy_alloc__E                                     
1001c889  xdc_runtime_Memory_HeapProxy_free__E                                      
0000148a  xdc_runtime_Memory_Module__id__C                                          
20000200  xdc_runtime_Memory_Module__state__V                                       
1001c485  xdc_runtime_Memory_alloc__E                                               
1001c849  xdc_runtime_Memory_calloc__E                                              
0000144c  xdc_runtime_Memory_defaultHeapInstance__C                                 
1001c7fd  xdc_runtime_Memory_free__E                                                
1001c855  xdc_runtime_Memory_getMaxDefaultTypeAlign__E                              
1001c781  xdc_runtime_Memory_valloc__E                                              
200001f0  xdc_runtime_Startup_Module__state__V                                      
00000001  xdc_runtime_Startup__EXECFXN__C                                           
00000001  xdc_runtime_Startup__RESETFXN__C                                          
00001450  xdc_runtime_Startup_execImpl__C                                           
1001c555  xdc_runtime_Startup_exec__E                                               
0000bfe3  xdc_runtime_Startup_exec__I                                               
00000d8c  xdc_runtime_Startup_firstFxns__A                                          
00001418  xdc_runtime_Startup_firstFxns__C                                          
00009f45  xdc_runtime_Startup_getState__I                                           
00001420  xdc_runtime_Startup_lastFxns__C                                           
00001454  xdc_runtime_Startup_maxPasses__C                                          
0000c13d  xdc_runtime_Startup_reset__I                                              
0000c149  xdc_runtime_Startup_rtsDone__E                                            
00000d54  xdc_runtime_Startup_sfxnRts__A                                            
00001458  xdc_runtime_Startup_sfxnRts__C                                            
00000bcc  xdc_runtime_Startup_sfxnTab__A                                            
0000145c  xdc_runtime_Startup_sfxnTab__C                                            
00001460  xdc_runtime_Startup_startModsFxn__C                                       
1001c309  xdc_runtime_Startup_startMods__I                                          
00001464  xdc_runtime_SysCallback_abortFxn__C                                       
1001c80d  xdc_runtime_SysCallback_abort__E                                          
00008aff  xdc_runtime_SysCallback_defaultAbort                                      
0000a053  xdc_runtime_SysCallback_defaultExit                                       
00001468  xdc_runtime_SysCallback_exitFxn__C                                        
1001c81d  xdc_runtime_SysCallback_exit__E                                           
0000bb29  xdc_runtime_SysStd_abort__E                                               
0000c155  xdc_runtime_SysStd_exit__E                                                
0000c23b  xdc_runtime_SysStd_putch__E                                               
0000c23f  xdc_runtime_SysStd_ready__E                                               
1001bbe5  xdc_runtime_System_Module_GateProxy_Handle__label__S                      
1001bbe5  xdc_runtime_System_Module_GateProxy_Handle__label__S__mangled__           
1001bc05  xdc_runtime_System_Module_GateProxy_Object__delete__S                     
1001c88d  xdc_runtime_System_Module_GateProxy_enter__E                              
1001c891  xdc_runtime_System_Module_GateProxy_leave__E                              
1001c265  xdc_runtime_System_Module_GateProxy_query__E                              
1001c265  xdc_runtime_System_Module_GateProxy_query__E__mangled__                   
200001f8  xdc_runtime_System_Module__state__V                                       
1001c87b  xdc_runtime_System_Module_startup__E                                      
0000bb29  xdc_runtime_System_SupportProxy_abort__E                                  
0000c155  xdc_runtime_System_SupportProxy_exit__E                                   
0000c23b  xdc_runtime_System_SupportProxy_putch__E                                  
0000c23f  xdc_runtime_System_SupportProxy_ready__E                                  
0000146c  xdc_runtime_System_abortFxn__C                                            
1001c895  xdc_runtime_System_abortSpin__E                                           
1001c745  xdc_runtime_System_abort__E                                               
1001c67d  xdc_runtime_System_atexit__E                                              
00003495  xdc_runtime_System_doPrint__I                                             
00001470  xdc_runtime_System_exitFxn__C                                             
1001c897  xdc_runtime_System_exitSpin__E                                            
1001c7cd  xdc_runtime_System_exit__E                                                
00000dd0  xdc_runtime_System_extendFxn__C                                           
00008a91  xdc_runtime_System_formatNum__I                                           
00001474  xdc_runtime_System_maxAtexitHandlers__C                                   
00005471  xdc_runtime_System_printfExtend__I                                        
0000bc99  xdc_runtime_System_printf__E                                              
0000c243  xdc_runtime_System_printf_va__F                                           
1001c6b5  xdc_runtime_System_processAtExit__E                                       
0000b6b1  xdc_runtime_System_putchar__I                                             
0000ba01  xdc_runtime_System_vprintf__E                                             
0000148c  xdc_runtime_Text_charCnt__C                                               
00000dd6  xdc_runtime_Text_charTab__A                                               
00001478  xdc_runtime_Text_charTab__C                                               
1001c719  xdc_runtime_Text_cordText__E                                              
0000148e  xdc_runtime_Text_isLoaded__C                                              
0000147c  xdc_runtime_Text_nameEmpty__C                                             
00001480  xdc_runtime_Text_nameStatic__C                                            
00001484  xdc_runtime_Text_nameUnknown__C                                           
1001c7e5  xdc_runtime_Text_ropeText__E                                              
1001c82d  xdc_runtime_Timestamp_SupportProxy_get32__E                               
0000c09f  xdc_runtime_Timestamp_SupportProxy_get32__E__mangled__                    
1001b9cd  xdc_runtime_Timestamp_SupportProxy_get64__E                               
1001b9cd  xdc_runtime_Timestamp_SupportProxy_get64__E__mangled__                    
1001c12b  xdc_runtime_Timestamp_SupportProxy_getFreq__E                             
1001c12b  xdc_runtime_Timestamp_SupportProxy_getFreq__E__mangled__                  
1001c82d  xdc_runtime_Timestamp_get32__E                                            
1001c82d  xdc_runtime_Timestamp_get32__E                                            
1001b9cd  xdc_runtime_Timestamp_get64__E                                            
1001b9cd  xdc_runtime_Timestamp_get64__E                                            
1001c12b  xdc_runtime_Timestamp_getFreq__E                                          
1001c12b  xdc_runtime_Timestamp_getFreq__E                                          


GLOBAL SYMBOLS: SORTED BY Symbol Address 

address   name                                                                      
-------   ----                                                                      
00000000  __ASM__                                                                   
00000000  ti_sysbios_family_arm_m3_Hwi_resetVectors                                 
00000001  xdc_runtime_Startup__EXECFXN__C                                           
00000001  xdc_runtime_Startup__RESETFXN__C                                          
0000007f  __ISA__                                                                   
00000091  __PLAT__                                                                  
000000b8  __TARG__                                                                  
000000dd  __TRDR__                                                                  
00000300  __STACK_SIZE                                                              
0000097c  _ctypes_                                                                  
00000a7e  resourceDB                                                                
00000b54  spiCC26XXDMAHWAttrs                                                       
00000bcc  xdc_runtime_Startup_sfxnTab__A                                            
00000bf8  UARTCC26XX_fxnTable                                                       
00000c20  SPI_config                                                                
00000c44  UART_defaultParams                                                        
00000c68  SPI_defaultParams                                                         
00000c88  uartCC26XXHWAttrs                                                         
00000ca8  BoardGpioInitTable                                                        
00000cc4  I2CCC26XX_fxnTable                                                        
00000cdc  I2C_config                                                                
00000cf4  PowerCC26XX_config                                                        
00000d0c  SPICC26XXDMA_fxnTable                                                     
00000d24  UART_config                                                               
00000d3c  i2cCC26xxHWAttrs                                                          
00000d54  xdc_runtime_Startup_sfxnRts__A                                            
00000d6c  I2C_defaultParams                                                         
00000d7c  UDMACC26XX_config                                                         
00000d8c  xdc_runtime_Startup_firstFxns__A                                          
00000d98  PINCC26XX_hwAttrs                                                         
00000da8  udmaHWAttrs                                                               
00000db0  UART_count                                                                
00000db1  SPI_count                                                                 
00000db2  I2C_count                                                                 
00000db3  Watchdog_count                                                            
00000db4  ti_sysbios_family_arm_m3_Hwi_swiDisable__C                                
00000db8  ti_sysbios_family_arm_m3_Hwi_swiRestoreHwi__C                             
00000dbc  ti_sysbios_family_arm_m3_Timer_E_cannotSupport__C                         
00000dc0  ti_sysbios_family_arm_m3_Timer_startupNeeded__C                           
00000dc4  ti_sysbios_knl_Clock_tickPeriod__C                                        
00000dc8  ti_sysbios_knl_Clock_triggerClock__C                                      
00000dcc  ti_sysbios_knl_Idle_funcList__A                                           
00000dd0  xdc_runtime_System_extendFxn__C                                           
00000dd4  ti_sysbios_family_arm_m3_Timer_Module__id__C                              
00000dd6  xdc_runtime_Text_charTab__A                                               
00001000  ti_sysbios_knl_Task_Object__PARAMS__C                                     
0000103c  ti_sysbios_knl_Mailbox_Object__PARAMS__C                                  
00001070  ti_sysbios_family_arm_m3_Hwi_Object__PARAMS__C                            
000010a0  ti_sysbios_hal_Hwi_Object__PARAMS__C                                      
000010cc  ti_sysbios_heaps_HeapMem_Module__FXNS__C                                  
000010f4  ti_sysbios_knl_Swi_Object__PARAMS__C                                      
0000111c  ti_sysbios_gates_GateHwi_Module__FXNS__C                                  
00001140  ti_sysbios_gates_GateMutex_Module__FXNS__C                                
00001164  ti_sysbios_heaps_HeapMem_Object__PARAMS__C                                
00001188  ti_sysbios_knl_Clock_Object__PARAMS__C                                    
000011ac  ti_sysbios_knl_Semaphore_Object__PARAMS__C                                
000011d0  ti_sysbios_family_arm_m3_Hwi_Object__DESC__C                              
000011f0  ti_sysbios_gates_GateHwi_Object__DESC__C                                  
00001210  ti_sysbios_gates_GateMutex_Object__DESC__C                                
00001230  ti_sysbios_hal_Hwi_Object__DESC__C                                        
00001250  ti_sysbios_heaps_HeapMem_Object__DESC__C                                  
00001270  ti_sysbios_knl_Clock_Object__DESC__C                                      
00001290  ti_sysbios_knl_Mailbox_Object__DESC__C                                    
000012b0  ti_sysbios_knl_Queue_Object__DESC__C                                      
000012d0  ti_sysbios_knl_Semaphore_Object__DESC__C                                  
000012f0  ti_sysbios_knl_Swi_Object__DESC__C                                        
00001310  ti_sysbios_knl_Task_Object__DESC__C                                       
00001330  ti_sysbios_gates_GateHwi_Object__PARAMS__C                                
00001348  ti_sysbios_gates_GateMutex_Object__PARAMS__C                              
00001360  ti_sysbios_knl_Queue_Object__PARAMS__C                                    
00001378  ti_sysbios_knl_Idle_funcList__C                                           
00001384  ti_sysbios_family_arm_cc26xx_Timer_startupNeeded__C                       
00001388  ti_sysbios_family_arm_m3_Hwi_E_alreadyDefined__C                          
0000138c  ti_sysbios_family_arm_m3_Hwi_E_hwiLimitExceeded__C                        
00001390  ti_sysbios_family_arm_m3_Hwi_NUM_INTERRUPTS__C                            
00001394  ti_sysbios_family_arm_m3_Hwi_Object__count__C                             
00001398  ti_sysbios_family_arm_m3_Hwi_Object__table__C                             
0000139c  ti_sysbios_family_arm_m3_Hwi_ccr__C                                       
000013a0  ti_sysbios_family_arm_m3_Hwi_excHandlerFunc__C                            
000013a4  ti_sysbios_family_arm_m3_Hwi_nullIsrFunc__C                               
000013a8  ti_sysbios_family_arm_m3_Hwi_numSparseInterrupts__C                       
000013ac  ti_sysbios_family_arm_m3_Hwi_priGroup__C                                  
000013b0  ti_sysbios_family_arm_m3_TaskSupport_stackAlignment__C                    
000013b4  ti_sysbios_heaps_HeapMem_E_memory__C                                      
000013b8  ti_sysbios_heaps_HeapMem_Module__gateObj__C                               
000013bc  ti_sysbios_heaps_HeapMem_Object__count__C                                 
000013c0  ti_sysbios_heaps_HeapMem_Object__table__C                                 
000013c4  ti_sysbios_heaps_HeapMem_reqAlign__C                                      
000013c8  ti_sysbios_knl_Clock_serviceMargin__C                                     
000013cc  ti_sysbios_knl_Mailbox_Object__count__C                                   
000013d0  ti_sysbios_knl_Mailbox_Object__table__C                                   
000013d4  ti_sysbios_knl_Mailbox_maxTypeAlign__C                                    
000013d8  ti_sysbios_knl_Queue_Object__count__C                                     
000013dc  ti_sysbios_knl_Queue_Object__table__C                                     
000013e0  ti_sysbios_knl_Swi_Object__count__C                                       
000013e4  ti_sysbios_knl_Swi_Object__table__C                                       
000013e8  ti_sysbios_knl_Swi_numPriorities__C                                       
000013ec  ti_sysbios_knl_Task_Object__count__C                                      
000013f0  ti_sysbios_knl_Task_Object__table__C                                      
000013f4  ti_sysbios_knl_Task_allBlockedFunc__C                                     
000013f8  ti_sysbios_knl_Task_defaultStackHeap__C                                   
000013fc  ti_sysbios_knl_Task_defaultStackSize__C                                   
00001400  ti_sysbios_knl_Task_numConstructedTasks__C                                
00001406  ti_sysbios_family_arm_cc26xx_Timer_Module__id__C                          
00001408  ti_sysbios_family_arm_cc26xx_TimestampProvider_useClockTimer__C           
0000140a  ti_sysbios_family_arm_m3_Hwi_Module__id__C                                
0000140c  ti_sysbios_gates_GateHwi_Module__id__C                                    
0000140e  ti_sysbios_gates_GateMutex_Module__id__C                                  
00001410  ti_sysbios_heaps_HeapMem_Module__id__C                                    
00001412  ti_sysbios_knl_Task_initStackFlag__C                                      
00001414  ti_sysbios_knl_Clock_tickMode__C                                          
00001418  xdc_runtime_Startup_firstFxns__C                                          
00001420  xdc_runtime_Startup_lastFxns__C                                           
00001428  xdc_runtime_Assert_E_assertFailed__C                                      
0000142c  xdc_runtime_Error_E_memory__C                                             
00001430  xdc_runtime_Error_policyFxn__C                                            
00001434  xdc_runtime_IGateProvider_Interface__BASE__C                              
00001438  xdc_runtime_IHeap_Interface__BASE__C                                      
0000143c  xdc_runtime_IModule_Interface__BASE__C                                    
00001440  xdc_runtime_Main_Module__diagsEnabled__C                                  
00001444  xdc_runtime_Main_Module__diagsIncluded__C                                 
00001448  xdc_runtime_Main_Module__diagsMask__C                                     
0000144c  xdc_runtime_Memory_defaultHeapInstance__C                                 
00001450  xdc_runtime_Startup_execImpl__C                                           
00001454  xdc_runtime_Startup_maxPasses__C                                          
00001458  xdc_runtime_Startup_sfxnRts__C                                            
0000145c  xdc_runtime_Startup_sfxnTab__C                                            
00001460  xdc_runtime_Startup_startModsFxn__C                                       
00001464  xdc_runtime_SysCallback_abortFxn__C                                       
00001468  xdc_runtime_SysCallback_exitFxn__C                                        
0000146c  xdc_runtime_System_abortFxn__C                                            
00001470  xdc_runtime_System_exitFxn__C                                             
00001474  xdc_runtime_System_maxAtexitHandlers__C                                   
00001478  xdc_runtime_Text_charTab__C                                               
0000147c  xdc_runtime_Text_nameEmpty__C                                             
00001480  xdc_runtime_Text_nameStatic__C                                            
00001484  xdc_runtime_Text_nameUnknown__C                                           
00001488  xdc_runtime_Main_Module__id__C                                            
0000148a  xdc_runtime_Memory_Module__id__C                                          
0000148c  xdc_runtime_Text_charCnt__C                                               
0000148e  xdc_runtime_Text_isLoaded__C                                              
00001490  xdc_runtime_Error_policy__C                                               
00001494  ti_sysbios_rom_ROM_AONRTCChannelEnable                                    
00001498  ti_sysbios_rom_ROM_AONRTCCompareValueSet                                  
0000149c  ti_sysbios_rom_ROM_AONRTCCurrentCompareValueGet                           
000014a0  ti_sysbios_rom_ROM_AONRTCEventClear                                       
000014a4  ti_sysbios_rom_ROM_ti_sysbios_family_arm_cc26xx_Timer_getCount64__E       
000014a8  ti_sysbios_rom_ROM_ti_sysbios_family_arm_cc26xx_Timer_getCurrentTick__E   
000014ac  ti_sysbios_rom_ROM_ti_sysbios_family_arm_cc26xx_Timer_getMaxTicks__E      
000014b0  ti_sysbios_rom_ROM_ti_sysbios_family_arm_cc26xx_Timer_initDevice__I       
000014b4  ti_sysbios_rom_ROM_ti_sysbios_family_arm_cc26xx_Timer_setNextTick__E      
000014b8  ti_sysbios_rom_ROM_ti_sysbios_family_arm_cc26xx_Timer_setThreshold__I     
000014bc  ti_sysbios_rom_ROM_ti_sysbios_family_arm_cc26xx_Timer_start__E            
000014c0  ti_sysbios_rom_ROM_ti_sysbios_family_arm_cc26xx_TimestampProvider_get32__E
000014c4  ti_sysbios_rom_ROM_xdc_runtime_Startup_getState__I                        
000014c8  ti_sysbios_rom_ROM_xdc_runtime_System_SupportProxy_abort__E               
000014cc  ti_sysbios_rom_ROM_xdc_runtime_System_SupportProxy_exit__E                
000014d0  ti_sysbios_gates_GateMutex_Instance_State_sem__O                          
000014d4  ti_sysbios_knl_Clock_Module_State_clockQ__O                               
000014d8  ti_sysbios_knl_Mailbox_Instance_State_dataQue__O                          
000014dc  ti_sysbios_knl_Mailbox_Instance_State_dataSem__O                          
000014e0  ti_sysbios_knl_Mailbox_Instance_State_freeQue__O                          
000014e4  ti_sysbios_knl_Mailbox_Instance_State_freeSem__O                          
000014e8  ti_sysbios_knl_Semaphore_Instance_State_pendQ__O                          
000014ec  ti_sysbios_knl_Task_Module_State_inactiveQ__O                             
00001d1d  __TI_printfi                                                              
000025f9  bmi160_config_running_mode                                                
00002d09  bmi160_read_fifo_header_data                                              
000030e5  bmi160_read_bmm150_mag_trim                                               
00003495  xdc_runtime_System_doPrint__I                                             
000037d1  PowerCC26XX_auxISR                                                        
00003add  SPICC26XXDMA_transfer                                                     
00004059  NOROM_SysCtrlSetRechargeBeforePowerDown                                   
00004281  Power_sleep                                                               
000044a5  bmi160_bmm150_mag_interface_init                                          
000046c1  __aeabi_uldivmod                                                          
000048b5  bmi160_set_bmm150_mag_presetmode                                          
00004b6d  __TI_cleanup                                                              
00004b99  freopen                                                                   
00004bc3  fopen                                                                     
00004c69  PIN_init                                                                  
00004e25  __aeabi_dsub                                                              
00004e2f  __aeabi_dadd                                                              
00004fdb  __aeabi_idiv0                                                             
00004fdd  uartTasks_init                                                            
00005175  PowerCC26XX_doCalibrate                                                   
00005305  bmi160_set_intr_enable_0                                                  
00005471  xdc_runtime_System_printfExtend__I                                        
000055d9  UARTCC26XX_open                                                           
00005895  I2CCC26XX_open                                                            
000059e9  __aeabi_ddiv                                                              
00005b1f  ti_sysbios_BIOS_linkedWithIncorrectBootLibrary__E                         
00005b21  NOROM_SetupAfterColdResetWakeupFromShutDownCfg3                           
00005c51  SPICC26XXDMA_open                                                         
00005d75  UARTCC26XX_read                                                           
00005e91  Power_init                                                                
00005fa5  UARTCC26XX_hwiIntFxn                                                      
000060b7  ti_sysbios_BIOS_nullFunc__I                                               
000061c9  bmi160_bmm150_mag_set_power_mode                                          
000062d5  UARTCC26XX_write                                                          
000063d1  __aeabi_dmul                                                              
000064cd  radioSetup_init                                                           
000065c1  NOROM_SetupAfterColdResetWakeupFromShutDownCfg2                           
000066b1  SPICC26XXDMA_transferCancel                                               
00006799  PowerCC26XX_standbyPolicy                                                 
00006959  setvbuf                                                                   
00006b11  bmi160_set_bmm150_mag_and_secondary_if_power_mode                         
00006be5  ldexp                                                                     
00006be5  ldexpl                                                                    
00006be5  scalbn                                                                    
00006be5  scalbnl                                                                   
00006cb5  __TI_doflush                                                              
00006d01  fflush                                                                    
00006e41  I2CCC26XX_transfer                                                        
00006f01  Power_releaseDependency                                                   
00007079  receive_init                                                              
00007135  open                                                                      
000071f1  bmi160_set_intr_enable_2                                                  
000072a9  Power_setDependency                                                       
0000735d  main                                                                      
0000740d  __TI_wrt_ok                                                               
0000746f  __TI_rd_ok                                                                
000074b9  NOROM_SetupTrimDevice                                                     
000074b9  ti_sysbios_family_arm_cc26xx_Boot_trimDevice                              
00007607  ti_sysbios_knl_Clock_triggerFunc__I                                       
00007609  NOROM_SetupAfterColdResetWakeupFromShutDownCfg1                           
00007751  __TI_auto_init                                                            
00007891  readDataFunction                                                          
0000792d  __aeabi_memcpy                                                            
0000792d  __aeabi_memcpy4                                                           
0000792d  __aeabi_memcpy8                                                           
0000792d  memcpy                                                                    
000079c9  PIN_open                                                                  
00007af9  __TI_closefile                                                            
00007b5f  fclose                                                                    
00007b91  fputc                                                                     
00007b91  putc                                                                      
00007c15  putchar                                                                   
00007c29  ti_sysbios_knl_Clock_workFuncDynamic__E                                   
00007cc1  __aeabi_fdiv                                                              
00007d53  ti_sysbios_rom_cortexm_cc13xx_CC13xx_badRomRevision__E                    
00007d55  I2CCC26XX_cancel                                                          
00007de5  SPICC26XXDMA_control                                                      
00007e75  bmi160_set_intr_fifo_wm                                                   
00007f05  bmi160_set_intr_level                                                     
00007f95  bmi160_set_output_enable                                                  
000080b1  UARTCC26XX_close                                                          
0000813d  UARTCC26XX_writeCancel                                                    
000081c9  setWEN                                                                    
000082e1  RFQueue_defineQueue                                                       
00008369  i2cSensorsInit                                                            
000083f1  __aeabi_cdcmpeq                                                           
000083f1  __aeabi_cdcmple                                                           
00008477  __aeabi_cdrcmple                                                          
000084fd  bmi160_read_mag_xyzr                                                      
000085f9  __aeabi_fmul                                                              
00008673  __aeabi_memclr                                                            
00008673  __aeabi_memclr4                                                           
00008673  __aeabi_memclr8                                                           
00008675  __aeabi_memset                                                            
00008675  __aeabi_memset4                                                           
00008675  __aeabi_memset8                                                           
0000867b  memset                                                                    
000086ed  bmi160_set_gyro_output_data_rate                                          
00008765  spiFlashWritePage                                                         
00008855  NOROM_SetupSetVddrLevel                                                   
000088c9  spiFlashReadPage                                                          
0000893d  ti_sysbios_family_arm_cc26xx_Timer_start__E                               
000089b1  bmi160_set_accel_range                                                    
00008a21  finddevice                                                                
00008a4b  getdevice                                                                 
00008a91  xdc_runtime_System_formatNum__I                                           
00008aff  xdc_runtime_SysCallback_defaultAbort                                      
00008b01  PowerCC26XX_initiateCalibration                                           
00008b6d  bmi160_bmm150_mag_wakeup                                                  
00008bd9  I2CCC26XX_close                                                           
00008c41  NOROM_SetupGetTrimForAmpcompCtrl                                          
00008ca9  NOROM_SetupGetTrimForAnabypassValue1                                      
00008d11  NOROM_SysCtrlAdjustRechargeAfterPowerDown                                 
00008d79  NOROM_SysCtrl_DCDC_VoltageConditionalControl                              
00008de1  UARTCC26XX_readCancel                                                     
00008e49  bmi160_bmm150_mag_compensate_X                                            
00008eb1  bmi160_bmm150_mag_compensate_Y                                            
00008f19  __TI_decompress_lzss                                                      
00008fe9  HOSTlseek                                                                 
00009051  HOSTrename                                                                
000090b9  __TI_writemsg                                                             
000090e7  C$$IO$$                                                                   
000090eb  __TI_readmsg                                                              
00009121  spiFlash_init                                                             
00009189  NOROM_OSCHF_AttemptToSwitchToXosc                                         
000091ed  PIN_add                                                                   
00009251  bmi160_interrupt_configuration                                            
000092b5  bmi160_set_accel_bw                                                       
00009319  bmi160_set_accel_output_data_rate                                         
0000937d  bmi160_set_fifo_accel_enable                                              
000093e1  bmi160_set_fifo_gyro_enable                                               
00009445  bmi160_set_fifo_header_enable                                             
000094a9  bmi160_set_fifo_mag_enable                                                
0000950d  bmi160_set_fifo_stop_on_full                                              
00009571  bmi160_set_fifo_time_enable                                               
000095d5  bmi160_set_gyro_bw                                                        
00009639  bmi160_set_gyro_sleep_state                                               
0000969d  bmi160_set_gyro_sleep_trigger                                             
00009701  bmi160_set_gyro_wakeup_intr                                               
00009765  bmi160_set_gyro_wakeup_trigger                                            
000097c9  bmi160_set_if_mode                                                        
0000982d  bmi160_set_mag_output_data_rate                                           
00009891  bmi160_set_paging_enable                                                  
000098f5  bmi160_set_pullup_configuration                                           
00009959  bmi160_set_target_page                                                    
00009a21  fseek                                                                     
00009a85  NOROM_OSCClockSourceSet                                                   
00009ae5  UARTCC26XX_control                                                        
00009b45  bmi160_set_mag_manual_enable                                              
00009ba5  HOSTopen                                                                  
00009c05  sprintf                                                                   
00009c65  PowerCC26XX_RCOSC_clockFunc                                               
00009cc1  PowerCC26XX_calibrate                                                     
00009d1d  UDMACC26XX_open                                                           
00009d79  bmi160_bmm150_mag_compensate_Z                                            
00009dd5  bmi160_set_i2c_device_addr                                                
00009e31  getWIP                                                                    
00009e8d  close                                                                     
00009ee9  frexp                                                                     
00009ee9  frexpl                                                                    
00009f45  xdc_runtime_Startup_getState__I                                           
00009fa1  SPICC26XXDMA_close                                                        
0000a053  xdc_runtime_SysCallback_defaultExit                                       
0000a055  PIN_remove                                                                
0000a105  bmi160_read_accel_xyz                                                     
0000a15d  bmi160_read_gyro_xyz                                                      
0000a1b5  HOSTread                                                                  
0000a20d  HOSTwrite                                                                 
0000a265  spiFlashEraseChip                                                         
0000a313  ltoa                                                                      
0000a369  NOROM_SetupSetCacheModeAccordingToCcfgSetting                             
0000a409  bmi160_i2c_bus_write                                                      
0000a4f5  atoi                                                                      
0000a541  copy_in                                                                   
0000a58d  ClockP_construct                                                          
0000a5d5  PIN_setOutputEnable                                                       
0000a61d  bmi160_initialize_sensor                                                  
0000a665  __aeabi_d2iz                                                              
0000a6ad  ti_sysbios_family_arm_m3_Timer_setPeriod__E                               
0000a6f5  RingBuf_put                                                               
0000a77d  ResetISR                                                                  
0000a77d  _c_int00                                                                  
0000a805  __aeabi_d2uiz                                                             
0000a849  HOSTclose                                                                 
0000a88d  HOSTunlink                                                                
0000a8d1  ti_sysbios_family_arm_m3_Timer_start__E                                   
0000a915  I2C_init                                                                  
0000a955  I2C_open                                                                  
0000a995  PINCC26XX_getConfig                                                       
0000aa15  SPI_init                                                                  
0000aa55  SPI_open                                                                  
0000aa95  UART_init                                                                 
0000aad5  UART_open                                                                 
0000ab15  bmi160_init                                                               
0000ab55  __aeabi_uidiv                                                             
0000ab55  __aeabi_uidivmod                                                          
0000ab95  ti_sysbios_family_arm_cc26xx_Timer_setThreshold__I                        
0000abd5  HwiP_construct                                                            
0000ac13  RingBuf_get                                                               
0000ac51  bmi160_bmm150_mag_compensate_xyz                                          
0000ac91  NOROM_ChipInfo_GetHwRevision                                              
0000accd  NOROM_OSC_HPOSCRelativeFrequencyOffsetGet                                 
0000ad09  SwiP_construct                                                            
0000ad81  ti_sysbios_family_arm_m3_Hwi_construct2__E                                
0000ae35  PIN_setOutputValue                                                        
0000ae6d  UARTCC26XX_swiIntFxn                                                      
0000aea5  buffers_init                                                              
0000af15  __aeabi_f2d                                                               
0000af4d  __aeabi_f2iz                                                              
0000af85  ti_sysbios_family_arm_cc26xx_Timer_getCurrentTick__E                      
0000aff5  UDMACC26XX_close                                                          
0000b02b  strncpy                                                                   
0000b061  NOROM_OSCHF_SwitchToRcOscTurnOffXosc                                      
0000b095  PIN_setConfig                                                             
0000b0c9  PIN_setInterrupt                                                          
0000b0fd  Power_releaseConstraint                                                   
0000b131  bmi160_get_accel_data_rdy                                                 
0000b165  bmi160_get_if_mode                                                        
0000b199  bmi160_get_mag_manual_enable                                              
0000b1cd  bmi160_get_mag_power_mode_stat                                            
0000b201  bmi160_get_paging_enable                                                  
0000b235  bmi160_get_pullup_configuration                                           
0000b269  bmi160_get_target_page                                                    
0000b29d  __aeabi_f2uiz                                                             
0000b2d1  ti_sysbios_BIOS_startFunc__I                                              
0000b305  ti_sysbios_family_arm_cc26xx_Timer_initDevice__I                          
0000b339  ti_sysbios_family_arm_m3_Timer_initDevice__I                              
0000b36d  ti_sysbios_family_arm_cc26xx_Timer_setNextTick__E                         
0000b3a1  NOROM_ChipInfo_GetChipType                                                
0000b3d1  NOROM_SetupSetAonRtcSubSecInc                                             
0000b401  Power_setConstraint                                                       
0000b431  bmi160_i2c_burst_read                                                     
0000b461  bmi160_i2c_bus_read                                                       
0000b491  i2c_routine                                                               
0000b4f1  ti_sysbios_BIOS_atExitFunc__I                                             
0000b521  __aeabi_i2d                                                               
0000b54f  malloc                                                                    
0000b57d  NOROM_DDI32RegWrite                                                       
0000b5a9  NOROM_OSCClockSourceGet                                                   
0000b5d5  NOROM_SetupGetTrimForRadcExtCfg                                           
0000b601  PINCC26XX_setMux                                                          
0000b62d  SemaphoreP_constructBinary                                                
0000b659  remove                                                                    
0000b659  unlink                                                                    
0000b685  ti_sysbios_knl_Clock_getTicksUntilInterrupt__E                            
0000b6b1  xdc_runtime_System_putchar__I                                             
0000b6dd  NOROM_AONBatMonTemperatureGetDegC                                         
0000b705  Power_registerNotify                                                      
0000b755  SafeHapiVoid                                                              
0000b77d  bmi160_read_reg                                                           
0000b7a5  bmi160_set_command_register                                               
0000b7cd  bmi160_set_fifo_wm                                                        
0000b7f5  bmi160_set_mag_read_addr                                                  
0000b81d  bmi160_set_mag_write_addr                                                 
0000b845  bmi160_set_mag_write_data                                                 
0000b86d  lseek                                                                     
0000b895  write                                                                     
0000b8bd  bmi160_fifo_data                                                          
0000b8e1  bmi160_write_reg                                                          
0000b905  __aeabi_ui2f                                                              
0000b929  ti_sysbios_BIOS_registerRTSLock__I                                        
0000b94d  ti_sysbios_BIOS_removeRTSLock__I                                          
0000b971  ti_sysbios_family_arm_cc26xx_Timer_getMaxTicks__E                         
0000b995  ti_sysbios_family_arm_m3_Timer_Module_startup__E                          
0000b9b9  ti_sysbios_family_arm_m3_Timer_postInit__I                                
0000b9dd  ti_sysbios_family_arm_m3_Timer_startup__E                                 
0000b9dd  ti_sysbios_hal_Timer_TimerProxy_startup__E                                
0000b9dd  ti_sysbios_hal_Timer_startup__E                                           
0000ba01  xdc_runtime_System_vprintf__E                                             
0000ba25  List_put                                                                  
0000ba49  NOROM_SetupGetTrimForXoscHfCtl                                            
0000ba69  PowerCC26XX_schedulerDisable                                              
0000ba89  PowerCC26XX_schedulerRestore                                              
0000baa9  Power_unregisterNotify                                                    
0000bac9  ti_sysbios_BIOS_rtsLock__I                                                
0000bae9  ti_sysbios_family_arm_cc26xx_Timer_dynamicStub__E                         
0000bb09  ti_sysbios_knl_Clock_stop__E                                              
0000bb29  xdc_runtime_SysStd_abort__E                                               
0000bb29  xdc_runtime_System_SupportProxy_abort__E                                  
0000bb49  PIN_close                                                                 
0000bb67  Power_getTransitionLatency                                                
0000bb85  NOROM_ChipInfo_GetChipFamily                                              
0000bba1  NOROM_SetupGetTrimForAmpcompTh2                                           
0000bbbd  NOROM_SetupGetTrimForRcOscLfRtuneCtuneTrim                                
0000bc11  ti_sysbios_family_arm_m3_Hwi_clearInterrupt__E                            
0000bc11  ti_sysbios_hal_Hwi_HwiProxy_clearInterrupt__E                             
0000bc11  ti_sysbios_hal_Hwi_clearInterrupt__E                                      
0000bc2d  ti_sysbios_family_arm_m3_Timer_stop__E                                    
0000bc49  ti_sysbios_knl_Swi_construct2__E                                          
0000bc65  free                                                                      
0000bc7f  memccpy                                                                   
0000bc99  xdc_runtime_System_printf__E                                              
0000bcb5  NOROM_AONRTCCurrentCompareValueGet                                        
0000bccd  NOROM_ChipInfo_GetPackageType                                             
0000bce5  NOROM_OSCHF_TurnOnXosc                                                    
0000bcfd  NOROM_SetupGetTrimForAdcShModeEn                                          
0000bd15  NOROM_SetupGetTrimForAdcShVbufEn                                          
0000bd2d  NOROM_SetupGetTrimForAmpcompTh1                                           
0000bd45  NOROM_SetupGetTrimForDblrLoopFilterResetVoltage                           
0000bd5d  NOROM_SetupGetTrimForRcOscLfIBiasTrim                                     
0000bd75  NOROM_SetupGetTrimForXoscLfRegulatorAndCmirrwrRatio                       
0000bd8d  PIN_getConfig                                                             
0000bda5  Power_idleFunc                                                            
0000bdbd  UARTCC26XX_init                                                           
0000bdd5  UART_Params_init                                                          
0000be05  _args_main                                                                
0000be1d  __aeabi_lmul                                                              
0000be35  strcmp                                                                    
0000be4d  ti_sysbios_BIOS_rtsUnlock__I                                              
0000be65  ti_sysbios_family_arm_m3_Timer_Module__startupDone__F                     
0000be65  ti_sysbios_family_arm_m3_Timer_Module__startupDone__S                     
0000be65  ti_sysbios_hal_Timer_TimerProxy_Module__startupDone__S                    
0000be7d  ti_sysbios_knl_Swi_or__E                                                  
0000be95  ti_sysbios_rom_cortexm_cc13xx_CC13xx_checkRevision__E                     
0000bead  xdc_runtime_Error_init__E                                                 
0000bec5  List_remove                                                               
0000bedb  NOROM_ThisLibraryIsFor_CC13x0_HwRev20AndLater_HaltIfViolated              
0000bef1  strchr                                                                    
0000bf07  strcpy                                                                    
0000bf1d  ti_sysbios_BIOS_exitFunc__I                                               
0000bf35  NOROM_AONRTCCurrent64BitValueGet                                          
0000bf49  SPI_Params_init                                                           
0000bf5d  bmi160_delay_ms                                                           
0000bf71  _register_unlock                                                          
0000bf77  _register_lock                                                            
0000bf7f  _nop                                                                      
0000bf85  strlen                                                                    
0000bf99  ti_sysbios_knl_Clock_doTick__I                                            
0000bfad  RingBuf_construct                                                         
0000bfbf  SemaphoreP_pend                                                           
0000bfd1  ti_sysbios_hal_Timer_Module_startup__E                                    
0000bfe3  xdc_runtime_Startup_exec__I                                               
0000bff5  HwiP_Params_init                                                          
0000c005  I2C_Params_init                                                           
0000c015  NOROM_SetupGetTrimForXoscHfFastStart                                      
0000c025  NOROM_SetupGetTrimForXoscHfIbiastherm                                     
0000c035  PINCC26XX_getPinCount                                                     
0000c045  SwiP_Params_init                                                          
0000c075  NOROM_VIMSModeGet                                                         
0000c083  SPICC26XXDMA_init                                                         
0000c091  __TI_decompress_none                                                      
0000c09f  ti_sysbios_family_arm_cc26xx_TimestampProvider_get32__E                   
0000c09f  xdc_runtime_Timestamp_SupportProxy_get32__E__mangled__                    
0000c0ad  List_empty                                                                
0000c0b9  NOROM_CPUcpsid                                                            
0000c0c5  NOROM_CPUcpsie                                                            
0000c0d1  NOROM_OSC_HPOSCRelativeFrequencyOffsetToRFCoreFormatConvert               
0000c0dd  PIN_registerIntCb                                                         
0000c0e9  Power_getConstraintMask                                                   
0000c0f5  Power_getDependencyCount                                                  
0000c101  __TI_zero_init                                                            
0000c119  ti_sysbios_knl_Swi_getTrigger__E                                          
0000c13d  xdc_runtime_Startup_reset__I                                              
0000c149  xdc_runtime_Startup_rtsDone__E                                            
0000c155  xdc_runtime_SysStd_exit__E                                                
0000c155  xdc_runtime_System_SupportProxy_exit__E                                   
0000c161  I2CCC26XX_init                                                            
0000c16b  I2C_transfer                                                              
0000c175  SPI_transfer                                                              
0000c17f  UART_read                                                                 
0000c189  UART_write                                                                
0000c193  UDMACC26XX_hwiIntFxn                                                      
0000c1b5  copysign                                                                  
0000c1b5  copysignl                                                                 
0000c1c5  ClockP_Params_init                                                        
0000c1cb  I2CCC26XX_control                                                         
0000c1d1  NOROM_CPUdelay                                                            
0000c1d7  UARTCC26XX_readPolling                                                    
0000c1dd  UARTCC26XX_writePolling                                                   
0000c1e7  ClockP_destruct                                                           
0000c1eb  ClockP_getCpuFreq                                                         
0000c1ef  ClockP_setTimeout                                                         
0000c1f3  ClockP_start                                                              
0000c1f7  ClockP_stop                                                               
0000c1fb  HwiP_destruct                                                             
0000c1ff  HwiP_disable                                                              
0000c203  HwiP_disableInterrupt                                                     
0000c207  HwiP_enableInterrupt                                                      
0000c20b  List_head                                                                 
0000c20f  List_next                                                                 
0000c213  SemaphoreP_destruct                                                       
0000c217  SemaphoreP_post                                                           
0000c21b  SwiP_destruct                                                             
0000c21f  SwiP_disable                                                              
0000c223  SwiP_getTrigger                                                           
0000c227  SwiP_or                                                                   
0000c22b  SwiP_post                                                                 
0000c237  ti_sysbios_family_arm_cc26xx_Timer_getCount64__E                          
0000c23b  xdc_runtime_SysStd_putch__E                                               
0000c23b  xdc_runtime_System_SupportProxy_putch__E                                  
0000c23f  xdc_runtime_SysStd_ready__E                                               
0000c23f  xdc_runtime_System_SupportProxy_ready__E                                  
0000c243  xdc_runtime_System_printf_va__F                                           
0000c3f8  __TI_static_base__                                                        
0000c6c8  __TI_Handler_Table_Base                                                   
0000c6d4  __TI_Handler_Table_Limit                                                  
0000c728  __TI_CINIT_Base                                                           
0000c7a8  __TI_CINIT_Limit                                                          
0001ffa8  __ccfg                                                                    
1001a001  ti_sysbios_knl_Semaphore_pend__E                                          
1001a0cd  ti_sysbios_knl_Mailbox_Instance_init__E                                   
1001a195  ti_sysbios_heaps_HeapMem_alloc__E                                         
1001a259  ti_sysbios_knl_Task_Instance_init__E                                      
1001a315  ti_sysbios_family_arm_m3_Hwi_postInit__I                                  
1001a3c5  ti_sysbios_family_arm_m3_Hwi_Instance_init__E                             
1001a465  ti_sysbios_family_arm_cc26xx_Timer_periodicStub__E                        
1001a4f9  ti_sysbios_knl_Task_Instance_finalize__E                                  
1001a58d  ti_sysbios_knl_Mailbox_post__E                                            
1001a611  ti_sysbios_knl_Task_postInit__I                                           
1001a695  ti_sysbios_family_arm_m3_Hwi_initNVIC__E                                  
1001a715  ti_sysbios_knl_Clock_startI__E                                            
1001a791  ti_sysbios_heaps_HeapMem_free__E                                          
1001a809  ti_sysbios_knl_Clock_walkQueueDynamic__E                                  
1001a881  ti_sysbios_knl_Clock_workFunc__E                                          
1001a8f9  ti_sysbios_knl_Mailbox_Instance_finalize__E                               
1001a969  ti_sysbios_knl_Mailbox_pend__E                                            
1001a9d9  ti_sysbios_knl_Task_sleep__E                                              
1001aa49  ti_sysbios_family_arm_m3_Hwi_dispatchC__I                                 
1001aab1  ti_sysbios_family_arm_m3_Hwi_Object__create__S                            
1001ab15  ti_sysbios_family_arm_m3_Hwi_create                                       
1001ab79  ti_sysbios_hal_Hwi_create                                                 
1001abdd  ti_sysbios_knl_Mailbox_create                                             
1001ac41  ti_sysbios_knl_Semaphore_post__E                                          
1001aca5  ti_sysbios_knl_Swi_Instance_init__E                                       
1001ad05  ti_sysbios_knl_Swi_create                                                 
1001ad61  ti_sysbios_knl_Swi_restoreHwi__E                                          
1001adbd  ti_sysbios_knl_Task_Module_startup__E                                     
1001ae19  ti_sysbios_knl_Task_create                                                
1001ae75  ti_sysbios_knl_Task_startCore__E                                          
1001aed1  ti_sysbios_family_arm_m3_Hwi_Instance_finalize__E                         
1001af29  ti_sysbios_family_arm_m3_Hwi_construct                                    
1001af81  ti_sysbios_knl_Mailbox_construct                                          
1001afd9  ti_sysbios_knl_Swi_run__I                                                 
1001b031  ti_sysbios_knl_Swi_schedule__I                                            
1001b085  ti_sysbios_knl_Swi_construct                                              
1001b0d5  ti_sysbios_knl_Swi_runLoop__I                                             
1001b125  ti_sysbios_knl_Task_construct                                             
1001b175  ti_sysbios_knl_Task_schedule__I                                           
1001b1c1  ti_sysbios_family_arm_m3_Hwi_Module_startup__E                            
1001b209  ti_sysbios_heaps_HeapMem_getStats__E                                      
1001b251  ti_sysbios_family_arm_m3_Hwi_disableInterrupt__E                          
1001b251  ti_sysbios_hal_Hwi_HwiProxy_disableInterrupt__E__mangled__                
1001b295  ti_sysbios_family_arm_m3_Hwi_enableInterrupt__E                           
1001b295  ti_sysbios_hal_Hwi_HwiProxy_enableInterrupt__E__mangled__                 
1001b2d9  ti_sysbios_knl_Mailbox_Module_startup__E                                  
1001b31d  ti_sysbios_knl_Swi_post__E                                                
1001b361  ti_sysbios_knl_Task_allBlockedFunction__I                                 
1001b3a5  ti_sysbios_knl_Task_yield__E                                              
1001b3e9  ti_sysbios_knl_Clock_create                                               
1001b425  ti_sysbios_knl_Task_exit__E                                               
1001b45f  ti_sysbios_gates_GateHwi_Instance_init__E                                 
1001b461  ti_sysbios_family_arm_m3_Hwi_getStackInfo__E                              
1001b461  ti_sysbios_hal_Hwi_HwiProxy_getStackInfo__E__mangled__                    
1001b499  ti_sysbios_family_arm_m3_TaskSupport_start__E                             
1001b499  ti_sysbios_knl_Task_SupportProxy_start__E__mangled__                      
1001b4d1  ti_sysbios_heaps_HeapMem_Instance_init__E                                 
1001b509  ti_sysbios_knl_Clock_Instance_init__E                                     
1001b541  ti_sysbios_heaps_HeapMem_init__I                                          
1001b575  ti_sysbios_knl_Clock_construct                                            
1001b5a9  ti_sysbios_knl_Semaphore_create                                           
1001b5dd  SwiP_restore                                                              
1001b5dd  ti_sysbios_knl_Swi_restore__E                                             
1001b611  ti_sysbios_knl_Task_blockI__E                                             
1001b645  ti_sysbios_gates_GateMutex_Object__create__S                              
1001b675  ti_sysbios_gates_GateMutex_create                                         
1001b6a5  ti_sysbios_gates_GateMutex_enter__E                                       
1001b6d5  ClockP_getSystemTicks                                                     
1001b6d5  ti_sysbios_knl_Clock_getTicks__E                                          
1001b705  ti_sysbios_knl_Semaphore_construct                                        
1001b735  ti_sysbios_knl_Task_processVitalTaskFlag__I                               
1001b765  ti_sysbios_family_arm_cc26xx_Timer_postInit__I                            
1001b791  ti_sysbios_family_arm_cc26xx_Timer_startup__E                             
1001b791  ti_sysbios_knl_Clock_TimerProxy_startup__E                                
1001b791  ti_sysbios_knl_Clock_TimerProxy_startup__E__mangled__                     
1001b7bd  ti_sysbios_family_arm_m3_Hwi_Object__get__S                               
1001b7e9  ti_sysbios_gates_GateMutex_construct                                      
1001b815  ti_sysbios_hal_Hwi_initStack                                              
1001b841  ti_sysbios_heaps_HeapMem_Object__create__S                                
1001b86d  ti_sysbios_heaps_HeapMem_Object__get__S                                   
1001b899  ti_sysbios_knl_Mailbox_Object__get__S                                     
1001b8c5  ti_sysbios_knl_Mailbox_postInit__I                                        
1001b8f1  ti_sysbios_knl_Queue_construct                                            
1001b91d  ti_sysbios_knl_Queue_create                                               
1001b949  ti_sysbios_knl_Semaphore_pendTimeout__I                                   
1001b975  ti_sysbios_knl_Swi_Object__get__S                                         
1001b9a1  ti_sysbios_knl_Task_unblockI__E                                           
1001b9cd  ti_sysbios_family_arm_cc26xx_TimestampProvider_get64__E                   
1001b9cd  xdc_runtime_Timestamp_SupportProxy_get64__E                               
1001b9cd  xdc_runtime_Timestamp_SupportProxy_get64__E__mangled__                    
1001b9cd  xdc_runtime_Timestamp_get64__E                                            
1001b9cd  xdc_runtime_Timestamp_get64__E                                            
1001b9f5  ti_sysbios_hal_Hwi_Instance_init__E                                       
1001ba1d  ti_sysbios_knl_Clock_addI__E                                              
1001ba45  ti_sysbios_knl_Task_restore__E                                            
1001ba6d  ti_sysbios_family_arm_cc26xx_Timer_Module_startup__E                      
1001ba91  ti_sysbios_gates_GateHwi_Object__create__S                                
1001bab5  ti_sysbios_BIOS_RtsGateProxy_Object__delete__S                            
1001bab5  ti_sysbios_gates_GateMutex_Object__delete__S                              
1001bab5  ti_sysbios_heaps_HeapMem_Module_GateProxy_Object__delete__S               
1001bad9  ti_sysbios_knl_Clock_Object__delete__S                                    
1001bafd  ti_sysbios_knl_Semaphore_Instance_init__E                                 
1001bb21  ti_sysbios_knl_Semaphore_Object__delete__S                                
1001bb45  ti_sysbios_family_arm_cc26xx_Timer_Module__startupDone__S                 
1001bb45  ti_sysbios_knl_Clock_TimerProxy_Module__startupDone__S__mangled__         
1001bb65  ti_sysbios_family_arm_cc26xx_TimestampProvider_Module_startup__E          
1001bb85  ti_sysbios_family_arm_m3_Hwi_Module__startupDone__S                       
1001bb85  ti_sysbios_hal_Hwi_HwiProxy_Module__startupDone__S__mangled__             
1001bba5  ti_sysbios_family_arm_m3_Hwi_Object__delete__S                            
1001bba5  ti_sysbios_hal_Hwi_HwiProxy_Object__delete__S                             
1001bbc5  ti_sysbios_family_arm_m3_Hwi_excHandler__I                                
1001bbe5  ti_sysbios_gates_GateHwi_Handle__label__S                                 
1001bbe5  xdc_runtime_Main_Module_GateProxy_Handle__label__S                        
1001bbe5  xdc_runtime_System_Module_GateProxy_Handle__label__S                      
1001bbe5  xdc_runtime_System_Module_GateProxy_Handle__label__S__mangled__           
1001bc05  ti_sysbios_gates_GateHwi_Object__delete__S                                
1001bc05  xdc_runtime_System_Module_GateProxy_Object__delete__S                     
1001bc25  ti_sysbios_BIOS_RtsGateProxy_Handle__label__S                             
1001bc25  ti_sysbios_BIOS_RtsGateProxy_Handle__label__S__mangled__                  
1001bc25  ti_sysbios_gates_GateMutex_Handle__label__S                               
1001bc25  ti_sysbios_heaps_HeapMem_Module_GateProxy_Handle__label__S                
1001bc25  ti_sysbios_heaps_HeapMem_Module_GateProxy_Handle__label__S__mangled__     
1001bc45  ti_sysbios_gates_GateMutex_Object__destruct__S                            
1001bc65  ti_sysbios_hal_Hwi_Object__delete__S                                      
1001bc85  ti_sysbios_heaps_HeapMem_Handle__label__S                                 
1001bc85  xdc_runtime_Memory_HeapProxy_Handle__label__S                             
1001bc85  xdc_runtime_Memory_HeapProxy_Handle__label__S__mangled__                  
1001bca5  ti_sysbios_heaps_HeapMem_Object__delete__S                                
1001bca5  xdc_runtime_Memory_HeapProxy_Object__delete__S                            
1001bcc5  ti_sysbios_knl_Clock_Module_startup__E                                    
1001bce5  ti_sysbios_knl_Clock_Object__destruct__S                                  
1001bd05  ti_sysbios_knl_Idle_run__E                                                
1001bd25  ti_sysbios_knl_Mailbox_Object__delete__S                                  
1001bd45  ti_sysbios_knl_Queue_Object__delete__S                                    
1001bd65  ti_sysbios_knl_Queue_Object__get__S                                       
1001bd85  ti_sysbios_knl_Semaphore_Object__destruct__S                              
1001bda5  ti_sysbios_knl_Swi_Object__delete__S                                      
1001bdc5  ti_sysbios_knl_Task_Object__delete__S                                     
1001bde5  ti_sysbios_knl_Task_Object__get__S                                        
1001be05  ti_sysbios_knl_Task_enter__I                                              
1001be25  ti_sysbios_knl_Task_restoreHwi__E                                         
1001be45  ti_sysbios_hal_Hwi_HwiProxy_create                                        
1001be63  ti_sysbios_knl_Clock_logTick__E                                           
1001be65  ti_sysbios_family_arm_m3_Hwi_Object__destruct__S                          
1001be81  ti_sysbios_family_arm_m3_Hwi_setPriority__E                               
1001be9d  ti_sysbios_gates_GateMutex_Instance_init__E                               
1001beb9  ti_sysbios_knl_Clock_scheduleNextTick__E                                  
1001bed5  ti_sysbios_knl_Mailbox_Object__destruct__S                                
1001bef1  ti_sysbios_knl_Queue_Object__destruct__S                                  
1001bf0d  ti_sysbios_knl_Queue_get__E                                               
1001bf29  ti_sysbios_knl_Queue_put__E                                               
1001bf45  ti_sysbios_knl_Swi_Object__destruct__S                                    
1001bf61  ti_sysbios_knl_Task_Object__destruct__S                                   
1001bf7d  ti_sysbios_knl_Task_sleepTimeout__I                                       
1001bf97  ti_sysbios_knl_Swi_Instance_finalize__E                                   
1001bf99  ti_sysbios_gates_GateMutex_leave__E                                       
1001bfb1  ti_sysbios_knl_Task_unblock__E                                            
1001bfc9  ti_sysbios_knl_Clock_Instance_finalize__E                                 
1001bfdf  ti_sysbios_knl_Clock_start__E                                             
1001bff5  ti_sysbios_BIOS_getCpuFreq__E                                             
1001c009  ti_sysbios_family_arm_m3_Hwi_switchFromBootStack__E                       
1001c009  ti_sysbios_hal_Hwi_HwiProxy_switchFromBootStack__E__mangled__             
1001c01d  ti_sysbios_hal_Hwi_Module_startup__E                                      
1001c031  ti_sysbios_BIOS_exit__E                                                   
1001c041  ti_sysbios_BIOS_setThreadType__E                                          
1001c051  ti_sysbios_BIOS_start__E                                                  
1001c061  ti_sysbios_family_arm_m3_Hwi_plug__E                                      
1001c071  ti_sysbios_gates_GateMutex_Instance_finalize__E                           
1001c081  ti_sysbios_hal_Hwi_HwiProxy_Object__create__S                             
1001c091  ti_sysbios_knl_Clock_TimerProxy_getCurrentTick__E                         
1001c0a1  ti_sysbios_knl_Clock_TimerProxy_getMaxTicks__E                            
1001c0b1  ti_sysbios_knl_Clock_TimerProxy_setNextTick__E                            
1001c0c1  ti_sysbios_knl_Semaphore_Instance_finalize__E                             
1001c0d1  ti_sysbios_knl_Swi_disable__E                                             
1001c0e1  ti_sysbios_knl_Swi_enabled__E                                             
1001c0f1  ti_sysbios_knl_Task_disable__E                                            
1001c101  ti_sysbios_heaps_HeapMem_restore__E                                       
1001c10f  ti_sysbios_knl_Queue_empty__E                                             
1001c11d  ti_sysbios_knl_Queue_remove__E                                            
1001c12b  ti_sysbios_family_arm_cc26xx_TimestampProvider_getFreq__E                 
1001c12b  xdc_runtime_Timestamp_SupportProxy_getFreq__E                             
1001c12b  xdc_runtime_Timestamp_SupportProxy_getFreq__E__mangled__                  
1001c12b  xdc_runtime_Timestamp_getFreq__E                                          
1001c12b  xdc_runtime_Timestamp_getFreq__E                                          
1001c139  ti_sysbios_family_arm_m3_Hwi_Params__init__S                              
1001c139  ti_sysbios_hal_Hwi_HwiProxy_Params__init__S                               
1001c139  ti_sysbios_hal_Hwi_HwiProxy_Params__init__S__mangled__                    
1001c145  scifOsalEnterCriticalSection                                              
1001c145  ti_sysbios_family_arm_m3_Hwi_disableFxn__E                                
1001c151  ti_sysbios_family_arm_m3_Hwi_enableFxn__E                                 
1001c15d  ti_sysbios_family_arm_m3_TaskSupport_getStackAlignment__E                 
1001c15d  ti_sysbios_knl_Task_SupportProxy_getStackAlignment__E__mangled__          
1001c169  ti_sysbios_gates_GateHwi_enter__E                                         
1001c175  ti_sysbios_BIOS_RtsGateProxy_Params__init__S                              
1001c175  ti_sysbios_BIOS_RtsGateProxy_Params__init__S__mangled__                   
1001c175  ti_sysbios_gates_GateMutex_Params__init__S                                
1001c175  ti_sysbios_heaps_HeapMem_Module_GateProxy_Params__init__S                 
1001c175  ti_sysbios_heaps_HeapMem_Module_GateProxy_Params__init__S__mangled__      
1001c181  ti_sysbios_knl_Clock_Params__init__S                                      
1001c18d  ti_sysbios_knl_Clock_getTimerHandle__E                                    
1001c199  ti_sysbios_knl_Mailbox_Params__init__S                                    
1001c1a5  ti_sysbios_knl_Queue_dequeue__E                                           
1001c1b1  ti_sysbios_knl_Queue_enqueue__E                                           
1001c1bd  ti_sysbios_knl_Semaphore_Params__init__S                                  
1001c1c9  ti_sysbios_knl_Swi_Params__init__S                                        
1001c1d5  ti_sysbios_knl_Task_Params__init__S                                       
1001c1e1  ti_sysbios_knl_Task_self__E                                               
1001c1ed  ti_sysbios_hal_Hwi_Instance_finalize__E                                   
1001c1f7  ti_sysbios_family_arm_m3_Hwi_doSwiRestore__I                              
1001c1ff  ti_sysbios_family_arm_m3_Hwi_startup__E                                   
1001c1ff  ti_sysbios_hal_Hwi_HwiProxy_startup__E__mangled__                         
1001c207  ti_sysbios_knl_Idle_loop__E                                               
1001c20f  ti_sysbios_family_arm_m3_Hwi_doTaskRestore__I                             
1001c215  HwiP_restore                                                              
1001c215  scifOsalLeaveCriticalSection                                              
1001c215  ti_sysbios_family_arm_m3_Hwi_restoreFxn__E                                
1001c21b  ti_sysbios_gates_GateHwi_leave__E                                         
1001c227  ti_sysbios_knl_Queue_Instance_init__E                                     
1001c22d  ti_sysbios_knl_Queue_elemClear__E                                         
1001c233  ti_sysbios_knl_Swi_Module_startup__E                                      
1001c239  ti_sysbios_knl_Swi_startup__E                                             
1001c23f  ti_sysbios_knl_Task_enable__E                                             
1001c245  ti_sysbios_BIOS_RtsGateProxy_enter__E                                     
1001c249  ti_sysbios_BIOS_RtsGateProxy_leave__E                                     
1001c24d  ti_sysbios_family_arm_cc26xx_Timer_getExpiredTicks__E                     
1001c251  ti_sysbios_family_arm_cc26xx_Timer_getPeriod__E                           
1001c255  ti_sysbios_family_arm_cc26xx_Timer_setPeriod__E                           
1001c259  ti_sysbios_family_arm_m3_Hwi_delete                                       
1001c25d  ti_sysbios_family_arm_m3_Hwi_destruct                                     
1001c261  ti_sysbios_family_arm_m3_TaskSupport_Module__startupDone__S               
1001c261  ti_sysbios_knl_Task_SupportProxy_Module__startupDone__S__mangled__        
1001c265  ti_sysbios_gates_GateHwi_query__E                                         
1001c265  xdc_runtime_Main_Module_GateProxy_query__E                                
1001c265  xdc_runtime_System_Module_GateProxy_query__E                              
1001c265  xdc_runtime_System_Module_GateProxy_query__E__mangled__                   
1001c269  ti_sysbios_gates_GateMutex_delete                                         
1001c26d  ti_sysbios_gates_GateMutex_destruct                                       
1001c271  ti_sysbios_BIOS_RtsGateProxy_query__E                                     
1001c271  ti_sysbios_BIOS_RtsGateProxy_query__E__mangled__                          
1001c271  ti_sysbios_gates_GateMutex_query__E                                       
1001c271  ti_sysbios_heaps_HeapMem_Module_GateProxy_query__E                        
1001c271  ti_sysbios_heaps_HeapMem_Module_GateProxy_query__E__mangled__             
1001c275  ti_sysbios_hal_Hwi_HwiProxy_Module__startupDone__S                        
1001c279  ti_sysbios_hal_Hwi_HwiProxy_delete                                        
1001c27d  ti_sysbios_hal_Hwi_HwiProxy_disableInterrupt__E                           
1001c27d  ti_sysbios_hal_Hwi_disableInterrupt__E                                    
1001c27d  ti_sysbios_hal_Hwi_disableInterrupt__E                                    
1001c281  ti_sysbios_hal_Hwi_HwiProxy_enableInterrupt__E                            
1001c281  ti_sysbios_hal_Hwi_enableInterrupt__E                                     
1001c281  ti_sysbios_hal_Hwi_enableInterrupt__E                                     
1001c285  ti_sysbios_hal_Hwi_HwiProxy_getStackInfo__E                               
1001c285  ti_sysbios_hal_Hwi_getStackInfo__E                                        
1001c285  ti_sysbios_hal_Hwi_getStackInfo__E                                        
1001c289  ti_sysbios_hal_Hwi_HwiProxy_startup__E                                    
1001c289  ti_sysbios_hal_Hwi_startup__E                                             
1001c289  ti_sysbios_hal_Hwi_startup__E                                             
1001c28d  ti_sysbios_hal_Hwi_HwiProxy_switchFromBootStack__E                        
1001c291  ti_sysbios_hal_Hwi_delete                                                 
1001c295  ti_sysbios_hal_Hwi_switchFromBootStack__E                                 
1001c295  ti_sysbios_hal_Hwi_switchFromBootStack__E                                 
1001c299  ti_sysbios_heaps_HeapMem_Module_GateProxy_enter__E                        
1001c29d  ti_sysbios_heaps_HeapMem_Module_GateProxy_leave__E                        
1001c2a1  ti_sysbios_heaps_HeapMem_isBlocking__E                                    
1001c2a5  ti_sysbios_knl_Clock_TimerProxy_Module__startupDone__S                    
1001c2a9  ti_sysbios_knl_Clock_TimerProxy_getExpiredTicks__E                        
1001c2ad  ti_sysbios_knl_Clock_TimerProxy_getPeriod__E                              
1001c2b1  ti_sysbios_knl_Clock_delete                                               
1001c2b5  ti_sysbios_knl_Clock_destruct                                             
1001c2b9  ti_sysbios_knl_Clock_removeI__E                                           
1001c2bd  ti_sysbios_knl_Clock_setTimeout__E                                        
1001c2c1  ti_sysbios_knl_Mailbox_delete                                             
1001c2c5  ti_sysbios_knl_Mailbox_destruct                                           
1001c2c9  ti_sysbios_knl_Queue_delete                                               
1001c2cd  ti_sysbios_knl_Queue_destruct                                             
1001c2d1  ti_sysbios_knl_Queue_head__E                                              
1001c2d5  ti_sysbios_knl_Queue_next__E                                              
1001c2d9  ti_sysbios_knl_Semaphore_delete                                           
1001c2dd  ti_sysbios_knl_Semaphore_destruct                                         
1001c2e1  ti_sysbios_knl_Swi_delete                                                 
1001c2e5  ti_sysbios_knl_Swi_destruct                                               
1001c2e9  ti_sysbios_knl_Swi_postInit__I                                            
1001c2ed  ti_sysbios_knl_Task_SupportProxy_Module__startupDone__S                   
1001c2f1  ti_sysbios_knl_Task_SupportProxy_getStackAlignment__E                     
1001c2f5  ti_sysbios_knl_Task_SupportProxy_start__E                                 
1001c2f9  ti_sysbios_knl_Task_SupportProxy_swap__E                                  
1001c2fd  ti_sysbios_knl_Task_delete                                                
1001c301  ti_sysbios_knl_Task_destruct                                              
1001c305  ti_sysbios_knl_Task_startup__E                                            
1001c309  xdc_runtime_Startup_startMods__I                                          
1001c401  xdc_runtime_Core_createObject__I                                          
1001c483  xdc_runtime_Error_policySpin__E                                           
1001c485  xdc_runtime_Memory_alloc__E                                               
1001c4f5  xdc_runtime_Core_deleteObject__I                                          
1001c555  xdc_runtime_Startup_exec__E                                               
1001c5a5  xdc_runtime_Assert_raise__I                                               
1001c5ed  xdc_runtime_Core_assignParams__I                                          
1001c635  xdc_runtime_Core_constructObject__I                                       
1001c67d  xdc_runtime_System_atexit__E                                              
1001c6b5  xdc_runtime_System_processAtExit__E                                       
1001c6e9  xdc_runtime_Core_assignLabel__I                                           
1001c719  xdc_runtime_Text_cordText__E                                              
1001c745  xdc_runtime_System_abort__E                                               
1001c765  xdc_runtime_Error_raiseX__E                                               
1001c781  xdc_runtime_Memory_valloc__E                                              
1001c79d  xdc_runtime_Core_destructObject__I                                        
1001c7b5  xdc_runtime_Error_check__E                                                
1001c7cd  xdc_runtime_System_exit__E                                                
1001c7e5  xdc_runtime_Text_ropeText__E                                              
1001c7fd  xdc_runtime_Memory_free__E                                                
1001c80d  xdc_runtime_SysCallback_abort__E                                          
1001c81d  xdc_runtime_SysCallback_exit__E                                           
1001c82d  xdc_runtime_Timestamp_SupportProxy_get32__E                               
1001c82d  xdc_runtime_Timestamp_get32__E                                            
1001c82d  xdc_runtime_Timestamp_get32__E                                            
1001c849  xdc_runtime_Memory_calloc__E                                              
1001c855  xdc_runtime_Memory_getMaxDefaultTypeAlign__E                              
1001c875  xdc_runtime_Gate_leaveSystem__E                                           
1001c87b  xdc_runtime_System_Module_startup__E                                      
1001c881  xdc_runtime_Gate_enterSystem__E                                           
1001c885  xdc_runtime_Memory_HeapProxy_alloc__E                                     
1001c889  xdc_runtime_Memory_HeapProxy_free__E                                      
1001c88d  xdc_runtime_System_Module_GateProxy_enter__E                              
1001c891  xdc_runtime_System_Module_GateProxy_leave__E                              
1001c895  xdc_runtime_System_abortSpin__E                                           
1001c897  xdc_runtime_System_exitSpin__E                                            
1001c899  ti_sysbios_family_arm_m3_Hwi_dispatch__I                                  
1001c969  ti_sysbios_family_arm_m3_TaskSupport_buildTaskStack                       
1001c9b5  ti_sysbios_family_arm_m3_Hwi_initStacks__E                                
1001c9fd  ti_sysbios_family_arm_m3_Hwi_excHandlerAsm__I                             
1001ca1d  ti_sysbios_family_xxx_Hwi_switchAndRunFunc                                
1001ca3b  ti_sysbios_family_arm_m3_Hwi_pendSV__I                                    
1001ca53  ti_sysbios_family_arm_m3_Hwi_return                                       
1001ca55  ti_sysbios_family_arm_m3_TaskSupport_glue                                 
1001ca65  ti_sysbios_family_arm_m3_TaskSupport_swap__E                              
1001ca65  ti_sysbios_knl_Task_SupportProxy_swap__E__mangled__                       
1001ca6d  ti_sysbios_knl_Task_swapReturn                                            
1001ca97  ti_sysbios_rom_cortexm_cc13xx_CC13xx_getRevision__E                       
20000000  ti_sysbios_family_arm_m3_Hwi_ramVectors                                   
20000100  ti_sysbios_knl_Task_Module__state__V                                      
20000144  ti_sysbios_family_arm_m3_Hwi_Module__state__V                             
20000178  ti_sysbios_knl_Clock_Module__state__V                                     
200001a4  ti_sysbios_BIOS_Module__state__V                                          
200001c8  ti_sysbios_knl_Swi_Module__state__V                                       
200001e4  ti_sysbios_family_arm_cc26xx_Timer_Module__state__V                       
200001ec  ti_sysbios_family_arm_cc26xx_TimestampProvider_Module__state__V           
200001f0  xdc_runtime_Startup_Module__state__V                                      
200001f8  xdc_runtime_System_Module__state__V                                       
20000200  xdc_runtime_Memory_Module__state__V                                       
20000520  buffers                                                                   
20001120  ti_sysbios_heaps_HeapMem_Instance_State_0_buf__A                          
20001d20  accel_fifo                                                                
2000208c  gyro_fifo                                                                 
200023f8  mag_fifo                                                                  
20002768  ti_sysbios_knl_Task_Instance_State_0_stack__A                             
20002d68  spiCC26XXDMAObjects                                                       
20002f20  uartCC26XXObjects                                                         
2000304c  __CIOBUF_                                                                 
2000316c  spiRxBuffer                                                               
20003274  spiTxBuffer                                                               
2000337c  i2cCC26xxObjects                                                          
2000345c  ti_sysbios_family_arm_m3_Hwi_dispatchTable                                
20003524  __TI_tmpnams                                                              
20003664  testTask                                                                  
20003788  rxBuffer                                                                  
200037a8  uartCC26XXRingBuffer                                                      
200037c8  udmaObjects                                                               
200037e8  i2cTransaction                                                            
20003804  packetReceivedSemaphoreStruct                                             
20003834  s_bmi160                                                                  
20003848  spiTransaction                                                            
2000387b  driverlib_release_0_49471                                                 
20003888  txBuffer                                                                  
20003894  PowerCC26XX_taskKey                                                       
20003898  PowerCC26XX_swiKey                                                        
200038a4  dataQueue                                                                 
200038ac  parmbuf                                                                   
200038b4  accelxyz                                                                  
200038ba  gyroxyz                                                                   
200038c0  ClockP_tickPeriod                                                         
200038c4  freeMailbox                                                               
200038c8  i2c                                                                       
200038cc  incomingBuffer                                                            
200038d0  packetReceivedSemaphore                                                   
200038d4  readEntry                                                                 
200038d8  readyBuffer                                                               
200038dc  spiHandle                                                                 
200038e0  uartRxMailbox                                                             
200038e4  uartTxMailbox                                                             
200038e8  v_fifo_data_u8                                                            
20003ce8  pinUpperBound                                                             
20003cec  pinLowerBound                                                             
20003d80  pinHandleTable                                                            
20003dfc  PowerCC26XX_module                                                        
20003f10  _ftable                                                                   
20004000  radio_cmd_prop_div_setup                                                  
200040a0  radio_cmd_prop_rx                                                         
20004130  radio_cmd_prop_tx_adv                                                     
200041b0  _device                                                                   
20004228  radio_cmd_fs                                                              
20004288  radio_cmd_prop_tx                                                         
200042e8  ti_sysbios_knl_Task_Module_State_0_readyQ__A                              
200043a0  _stream                                                                   
200043f0  ti_sysbios_knl_Task_Object__table__V                                      
2000443c  errno                                                                     
20004440  ti_sysbios_family_arm_cc26xx_Timer_Object__table__V                       
20004488  radio_mode                                                                
200044c8  ti_sysbios_gates_GateMutex_Object__table__V                               
20004500  ti_sysbios_knl_Swi_Module_State_0_readyQ__A                               
20004530  ti_sysbios_knl_Swi_Object__table__V                                       
20004560  ti_sysbios_knl_Clock_Object__table__V                                     
20004580  xdc_runtime_Error_IgnoreBlock                                             
200045a0  ti_sysbios_family_arm_m3_Hwi_Object__table__V                             
200045b8  ti_sysbios_heaps_HeapMem_Object__table__V                                 
200045d0  __TI_ft_end                                                               
200045d4  __aeabi_stdin                                                             
200045d8  __aeabi_stdout                                                            
200045dc  __aeabi_stderr                                                            
200045e0  __TI_cleanup_ptr                                                          
200045e4  __TI_dtors_ptr                                                            
200045e8  __TI_enable_exit_profile_output                                           
200045ec  ti_sysbios_family_arm_m3_Timer_Module__state__V                           
200045f8  _lock                                                                     
200045fc  _unlock                                                                   
20004608  V_bmm150_maual_auto_condition_u8                                          
2000460c  V_fifo_time_U32                                                           
20004610  ti_sysbios_family_arm_m3_Hwi_Module__root__V                              
20004618  ti_sysbios_gates_GateHwi_Module__root__V                                  
20004620  ti_sysbios_gates_GateMutex_Module__root__V                                
20004628  ti_sysbios_hal_Hwi_Module__root__V                                        
20004630  ti_sysbios_heaps_HeapMem_Module__root__V                                  
20004638  ti_sysbios_knl_Clock_Module__root__V                                      
20004640  ti_sysbios_knl_Mailbox_Module__root__V                                    
20004648  ti_sysbios_knl_Queue_Module__root__V                                      
20004650  ti_sysbios_knl_Semaphore_Module__root__V                                  
20004658  ti_sysbios_knl_Swi_Module__root__V                                        
20004660  ti_sysbios_knl_Task_Module__root__V                                       
20004668  factor                                                                    
2000466c  gRange                                                                    
2000466e  ti_sysbios_family_arm_m3_Hwi_Module_State_0_excActive__A                  
20004678  main_func_sp                                                              
20004680  ti_sysbios_family_arm_m3_Hwi_Module_State_0_excContext__A                 
20004684  ti_sysbios_family_arm_m3_Hwi_Module_State_0_excStack__A                   
20004688  ti_sysbios_knl_Task_Module_State_0_idleTask__A                            
20004d00  __stack                                                                   
20005000  __STACK_END                                                               
20005000  __STACK_TOP                                                               
e000e000  ti_sysbios_family_arm_m3_Hwi_nvic                                         
ffffffff  __TI_pprof_out_hndl                                                       
ffffffff  __TI_prof_data_size                                                       
ffffffff  __TI_prof_data_start                                                      
ffffffff  __binit__                                                                 
ffffffff  __c_args__                                                                
ffffffff  binit                                                                     
UNDEFED   SHT$$INIT_ARRAY$$Base                                                     
UNDEFED   SHT$$INIT_ARRAY$$Limit                                                    

[1020 symbols]
