******************************************************************************
                  TI ARM Linker PC v5.2.5                      
******************************************************************************
>> Linked Mon Aug 07 09:21:08 2017

OUTPUT FILE NAME:   <tag-cc1310-launchpad.out>
ENTRY POINT SYMBOL: "ResetISR"  address: 00008189


MEMORY CONFIGURATION

         name            origin    length      used     unused   attr    fill
----------------------  --------  ---------  --------  --------  ----  --------
  FLASH_APPL            00000000   0001e000  00009980  00014680  R  X
  FLASH_DATA            0001e000   00001000  00000000  00001000  R  X
  FLASH_CCFG            0001f000   00001000  00000058  00000fa8  R  X
  SRAM                  20000000   00005000  00003b90  00001470  RW X


SEGMENT ALLOCATION MAP

run origin  load origin   length   init length attrs members
----------  ----------- ---------- ----------- ----- -------
00000000    00000000    00000de0   00000de0    r--
  00000000    00000000    0000003c   0000003c    r-- .resetVecs
  0000003c    0000003c    00000da4   00000da4    r-- .const
00001000    00001000    00008bb0   00008bb0    r-x
  00001000    00001000    0000003c   0000003c    r-- .const:ti_sysbios_knl_Task_Object__PARAMS__C
  0000103c    0000103c    00000034   00000034    r-- .const:ti_sysbios_knl_Mailbox_Object__PARAMS__C
  00001070    00001070    00000030   00000030    r-- .const:ti_sysbios_family_arm_m3_Hwi_Object__PARAMS__C
  000010a0    000010a0    0000002c   0000002c    r-- .const:ti_sysbios_hal_Hwi_Object__PARAMS__C
  000010cc    000010cc    00000028   00000028    r-- .const:ti_sysbios_heaps_HeapMem_Module__FXNS__C
  000010f4    000010f4    00000028   00000028    r-- .const:ti_sysbios_knl_Swi_Object__PARAMS__C
  0000111c    0000111c    00000024   00000024    r-- .const:ti_sysbios_gates_GateHwi_Module__FXNS__C
  00001140    00001140    00000024   00000024    r-- .const:ti_sysbios_gates_GateMutex_Module__FXNS__C
  00001164    00001164    00000024   00000024    r-- .const:ti_sysbios_heaps_HeapMem_Object__PARAMS__C
  00001188    00001188    00000024   00000024    r-- .const:ti_sysbios_knl_Clock_Object__PARAMS__C
  000011ac    000011ac    00000024   00000024    r-- .const:ti_sysbios_knl_Semaphore_Object__PARAMS__C
  000011d0    000011d0    00000020   00000020    r-- .const:ti_sysbios_family_arm_m3_Hwi_Object__DESC__C
  000011f0    000011f0    00000020   00000020    r-- .const:ti_sysbios_gates_GateHwi_Object__DESC__C
  00001210    00001210    00000020   00000020    r-- .const:ti_sysbios_gates_GateMutex_Object__DESC__C
  00001230    00001230    00000020   00000020    r-- .const:ti_sysbios_hal_Hwi_Object__DESC__C
  00001250    00001250    00000020   00000020    r-- .const:ti_sysbios_heaps_HeapMem_Object__DESC__C
  00001270    00001270    00000020   00000020    r-- .const:ti_sysbios_knl_Clock_Object__DESC__C
  00001290    00001290    00000020   00000020    r-- .const:ti_sysbios_knl_Mailbox_Object__DESC__C
  000012b0    000012b0    00000020   00000020    r-- .const:ti_sysbios_knl_Queue_Object__DESC__C
  000012d0    000012d0    00000020   00000020    r-- .const:ti_sysbios_knl_Semaphore_Object__DESC__C
  000012f0    000012f0    00000020   00000020    r-- .const:ti_sysbios_knl_Swi_Object__DESC__C
  00001310    00001310    00000020   00000020    r-- .const:ti_sysbios_knl_Task_Object__DESC__C
  00001330    00001330    00000018   00000018    r-- .const:ti_sysbios_gates_GateHwi_Object__PARAMS__C
  00001348    00001348    00000018   00000018    r-- .const:ti_sysbios_gates_GateMutex_Object__PARAMS__C
  00001360    00001360    00000018   00000018    r-- .const:ti_sysbios_knl_Queue_Object__PARAMS__C
  00001378    00001378    00000008   00000008    r-- .const:ti_sysbios_knl_Idle_funcList__C
  00001384    00001384    00000004   00000004    r-- .const:ti_sysbios_family_arm_cc26xx_Timer_startupNeeded__C
  00001388    00001388    00000004   00000004    r-- .const:ti_sysbios_family_arm_m3_Hwi_E_alreadyDefined__C
  0000138c    0000138c    00000004   00000004    r-- .const:ti_sysbios_family_arm_m3_Hwi_E_hwiLimitExceeded__C
  00001390    00001390    00000004   00000004    r-- .const:ti_sysbios_family_arm_m3_Hwi_NUM_INTERRUPTS__C
  00001394    00001394    00000004   00000004    r-- .const:ti_sysbios_family_arm_m3_Hwi_Object__count__C
  00001398    00001398    00000004   00000004    r-- .const:ti_sysbios_family_arm_m3_Hwi_Object__table__C
  0000139c    0000139c    00000004   00000004    r-- .const:ti_sysbios_family_arm_m3_Hwi_ccr__C
  000013a0    000013a0    00000004   00000004    r-- .const:ti_sysbios_family_arm_m3_Hwi_excHandlerFunc__C
  000013a4    000013a4    00000004   00000004    r-- .const:ti_sysbios_family_arm_m3_Hwi_nullIsrFunc__C
  000013a8    000013a8    00000004   00000004    r-- .const:ti_sysbios_family_arm_m3_Hwi_numSparseInterrupts__C
  000013ac    000013ac    00000004   00000004    r-- .const:ti_sysbios_family_arm_m3_Hwi_priGroup__C
  000013b0    000013b0    00000004   00000004    r-- .const:ti_sysbios_family_arm_m3_TaskSupport_stackAlignment__C
  000013b4    000013b4    00000004   00000004    r-- .const:ti_sysbios_heaps_HeapMem_E_memory__C
  000013b8    000013b8    00000004   00000004    r-- .const:ti_sysbios_heaps_HeapMem_Module__gateObj__C
  000013bc    000013bc    00000004   00000004    r-- .const:ti_sysbios_heaps_HeapMem_Object__count__C
  000013c0    000013c0    00000004   00000004    r-- .const:ti_sysbios_heaps_HeapMem_Object__table__C
  000013c4    000013c4    00000004   00000004    r-- .const:ti_sysbios_heaps_HeapMem_reqAlign__C
  000013c8    000013c8    00000004   00000004    r-- .const:ti_sysbios_knl_Clock_serviceMargin__C
  000013cc    000013cc    00000004   00000004    r-- .const:ti_sysbios_knl_Mailbox_Object__count__C
  000013d0    000013d0    00000004   00000004    r-- .const:ti_sysbios_knl_Mailbox_Object__table__C
  000013d4    000013d4    00000004   00000004    r-- .const:ti_sysbios_knl_Mailbox_maxTypeAlign__C
  000013d8    000013d8    00000004   00000004    r-- .const:ti_sysbios_knl_Queue_Object__count__C
  000013dc    000013dc    00000004   00000004    r-- .const:ti_sysbios_knl_Queue_Object__table__C
  000013e0    000013e0    00000004   00000004    r-- .const:ti_sysbios_knl_Swi_Object__count__C
  000013e4    000013e4    00000004   00000004    r-- .const:ti_sysbios_knl_Swi_Object__table__C
  000013e8    000013e8    00000004   00000004    r-- .const:ti_sysbios_knl_Swi_numPriorities__C
  000013ec    000013ec    00000004   00000004    r-- .const:ti_sysbios_knl_Task_Object__count__C
  000013f0    000013f0    00000004   00000004    r-- .const:ti_sysbios_knl_Task_Object__table__C
  000013f4    000013f4    00000004   00000004    r-- .const:ti_sysbios_knl_Task_allBlockedFunc__C
  000013f8    000013f8    00000004   00000004    r-- .const:ti_sysbios_knl_Task_defaultStackHeap__C
  000013fc    000013fc    00000004   00000004    r-- .const:ti_sysbios_knl_Task_defaultStackSize__C
  00001400    00001400    00000004   00000004    r-- .const:ti_sysbios_knl_Task_numConstructedTasks__C
  00001406    00001406    00000002   00000002    r-- .const:ti_sysbios_family_arm_cc26xx_Timer_Module__id__C
  00001408    00001408    00000002   00000002    r-- .const:ti_sysbios_family_arm_cc26xx_TimestampProvider_useClockTimer__C
  0000140a    0000140a    00000002   00000002    r-- .const:ti_sysbios_family_arm_m3_Hwi_Module__id__C
  0000140c    0000140c    00000002   00000002    r-- .const:ti_sysbios_gates_GateHwi_Module__id__C
  0000140e    0000140e    00000002   00000002    r-- .const:ti_sysbios_gates_GateMutex_Module__id__C
  00001410    00001410    00000002   00000002    r-- .const:ti_sysbios_heaps_HeapMem_Module__id__C
  00001412    00001412    00000002   00000002    r-- .const:ti_sysbios_knl_Task_initStackFlag__C
  00001414    00001414    00000001   00000001    r-- .const:ti_sysbios_knl_Clock_tickMode__C
  00001418    00001418    00000008   00000008    r-- .const:xdc_runtime_Startup_firstFxns__C
  00001420    00001420    00000008   00000008    r-- .const:xdc_runtime_Startup_lastFxns__C
  00001428    00001428    00000004   00000004    r-- .const:xdc_runtime_Assert_E_assertFailed__C
  0000142c    0000142c    00000004   00000004    r-- .const:xdc_runtime_Error_E_memory__C
  00001430    00001430    00000004   00000004    r-- .const:xdc_runtime_Error_policyFxn__C
  00001434    00001434    00000004   00000004    r-- .const:xdc_runtime_IGateProvider_Interface__BASE__C
  00001438    00001438    00000004   00000004    r-- .const:xdc_runtime_IHeap_Interface__BASE__C
  0000143c    0000143c    00000004   00000004    r-- .const:xdc_runtime_IModule_Interface__BASE__C
  00001440    00001440    00000004   00000004    r-- .const:xdc_runtime_Main_Module__diagsEnabled__C
  00001444    00001444    00000004   00000004    r-- .const:xdc_runtime_Main_Module__diagsIncluded__C
  00001448    00001448    00000004   00000004    r-- .const:xdc_runtime_Main_Module__diagsMask__C
  0000144c    0000144c    00000004   00000004    r-- .const:xdc_runtime_Memory_defaultHeapInstance__C
  00001450    00001450    00000004   00000004    r-- .const:xdc_runtime_Startup_execImpl__C
  00001454    00001454    00000004   00000004    r-- .const:xdc_runtime_Startup_maxPasses__C
  00001458    00001458    00000004   00000004    r-- .const:xdc_runtime_Startup_sfxnRts__C
  0000145c    0000145c    00000004   00000004    r-- .const:xdc_runtime_Startup_sfxnTab__C
  00001460    00001460    00000004   00000004    r-- .const:xdc_runtime_Startup_startModsFxn__C
  00001464    00001464    00000004   00000004    r-- .const:xdc_runtime_SysCallback_abortFxn__C
  00001468    00001468    00000004   00000004    r-- .const:xdc_runtime_SysCallback_exitFxn__C
  0000146c    0000146c    00000004   00000004    r-- .const:xdc_runtime_System_abortFxn__C
  00001470    00001470    00000004   00000004    r-- .const:xdc_runtime_System_exitFxn__C
  00001474    00001474    00000004   00000004    r-- .const:xdc_runtime_System_maxAtexitHandlers__C
  00001478    00001478    00000004   00000004    r-- .const:xdc_runtime_Text_charTab__C
  0000147c    0000147c    00000004   00000004    r-- .const:xdc_runtime_Text_nameEmpty__C
  00001480    00001480    00000004   00000004    r-- .const:xdc_runtime_Text_nameStatic__C
  00001484    00001484    00000004   00000004    r-- .const:xdc_runtime_Text_nameUnknown__C
  00001488    00001488    00000002   00000002    r-- .const:xdc_runtime_Main_Module__id__C
  0000148a    0000148a    00000002   00000002    r-- .const:xdc_runtime_Memory_Module__id__C
  0000148c    0000148c    00000002   00000002    r-- .const:xdc_runtime_Text_charCnt__C
  0000148e    0000148e    00000002   00000002    r-- .const:xdc_runtime_Text_isLoaded__C
  00001490    00001490    00000001   00000001    r-- .const:xdc_runtime_Error_policy__C
  00001494    00001494    00000004   00000004    r-- .const:ti_sysbios_rom_ROM_AONRTCChannelEnable
  00001498    00001498    00000004   00000004    r-- .const:ti_sysbios_rom_ROM_AONRTCCompareValueSet
  0000149c    0000149c    00000004   00000004    r-- .const:ti_sysbios_rom_ROM_AONRTCCurrentCompareValueGet
  000014a0    000014a0    00000004   00000004    r-- .const:ti_sysbios_rom_ROM_AONRTCEventClear
  000014a4    000014a4    00000004   00000004    r-- .const:ti_sysbios_rom_ROM_ti_sysbios_family_arm_cc26xx_Timer_getCount64__E
  000014a8    000014a8    00000004   00000004    r-- .const:ti_sysbios_rom_ROM_ti_sysbios_family_arm_cc26xx_Timer_getCurrentTick__E
  000014ac    000014ac    00000004   00000004    r-- .const:ti_sysbios_rom_ROM_ti_sysbios_family_arm_cc26xx_Timer_getMaxTicks__E
  000014b0    000014b0    00000004   00000004    r-- .const:ti_sysbios_rom_ROM_ti_sysbios_family_arm_cc26xx_Timer_initDevice__I
  000014b4    000014b4    00000004   00000004    r-- .const:ti_sysbios_rom_ROM_ti_sysbios_family_arm_cc26xx_Timer_setNextTick__E
  000014b8    000014b8    00000004   00000004    r-- .const:ti_sysbios_rom_ROM_ti_sysbios_family_arm_cc26xx_Timer_setThreshold__I
  000014bc    000014bc    00000004   00000004    r-- .const:ti_sysbios_rom_ROM_ti_sysbios_family_arm_cc26xx_Timer_start__E
  000014c0    000014c0    00000004   00000004    r-- .const:ti_sysbios_rom_ROM_ti_sysbios_family_arm_cc26xx_TimestampProvider_get32__E
  000014c4    000014c4    00000004   00000004    r-- .const:ti_sysbios_rom_ROM_xdc_runtime_Startup_getState__I
  000014c8    000014c8    00000004   00000004    r-- .const:ti_sysbios_rom_ROM_xdc_runtime_System_SupportProxy_abort__E
  000014cc    000014cc    00000004   00000004    r-- .const:ti_sysbios_rom_ROM_xdc_runtime_System_SupportProxy_exit__E
  000014d0    000014d0    00000004   00000004    r-- .const:ti_sysbios_gates_GateMutex_Instance_State_sem__O
  000014d4    000014d4    00000004   00000004    r-- .const:ti_sysbios_knl_Clock_Module_State_clockQ__O
  000014d8    000014d8    00000004   00000004    r-- .const:ti_sysbios_knl_Mailbox_Instance_State_dataQue__O
  000014dc    000014dc    00000004   00000004    r-- .const:ti_sysbios_knl_Mailbox_Instance_State_dataSem__O
  000014e0    000014e0    00000004   00000004    r-- .const:ti_sysbios_knl_Mailbox_Instance_State_freeQue__O
  000014e4    000014e4    00000004   00000004    r-- .const:ti_sysbios_knl_Mailbox_Instance_State_freeSem__O
  000014e8    000014e8    00000004   00000004    r-- .const:ti_sysbios_knl_Semaphore_Instance_State_pendQ__O
  000014ec    000014ec    00000004   00000004    r-- .const:ti_sysbios_knl_Task_Module_State_inactiveQ__O
  000014f0    000014f0    00008164   00008164    r-x .text
  00009658    00009658    00000558   00000558    r-- .cinit
0001ffa8    0001ffa8    00000058   00000058    r--
  0001ffa8    0001ffa8    00000058   00000058    r-- .ccfg
20000000    20000000    000000c8   00000000    rw-
  20000000    20000000    000000c8   00000000    rw- .vecs
20000100    20000100    00000104   00000000    rw-
  20000100    20000100    00000044   00000000    rw- .data:ti_sysbios_knl_Task_Module__state__V
  20000144    20000144    00000034   00000000    rw- .data:ti_sysbios_family_arm_m3_Hwi_Module__state__V
  20000178    20000178    0000002c   00000000    rw- .data:ti_sysbios_knl_Clock_Module__state__V
  200001a4    200001a4    00000024   00000000    rw- .data:ti_sysbios_BIOS_Module__state__V
  200001c8    200001c8    0000001c   00000000    rw- .data:ti_sysbios_knl_Swi_Module__state__V
  200001e4    200001e4    00000008   00000000    rw- .data:ti_sysbios_family_arm_cc26xx_Timer_Module__state__V
  200001ec    200001ec    00000004   00000000    rw- .data:ti_sysbios_family_arm_cc26xx_TimestampProvider_Module__state__V
  200001f0    200001f0    00000008   00000000    rw- .data:xdc_runtime_Startup_Module__state__V
  200001f8    200001f8    00000008   00000000    rw- .data:xdc_runtime_System_Module__state__V
  20000200    20000200    00000004   00000000    rw- .data:xdc_runtime_Memory_Module__state__V
20000430    20000430    00000010   00000000    rw-
  20000430    20000430    00000010   00000000    rw- .TI.bound:dmaSpi0RxControlTableEntry
20000440    20000440    00000010   00000000    rw-
  20000440    20000440    00000010   00000000    rw- .TI.bound:dmaSpi0TxControlTableEntry
20000500    20000500    00000010   00000000    rw-
  20000500    20000500    00000010   00000000    rw- .TI.bound:dmaSpi1RxControlTableEntry
20000510    20000510    00003694   00000000    rw-
  20000510    20000510    00000010   00000000    rw- .TI.bound:dmaSpi1TxControlTableEntry
  20000520    20000520    00002ca8   00000000    rw- .bss
  200031c8    200031c8    000009dc   00000000    rw- .data
20004d00    20004d00    00000300   00000000    rw-
  20004d00    20004d00    00000300   00000000    rw- .stack


SECTION ALLOCATION MAP

 output                                  attributes/
section   page    origin      length       input sections
--------  ----  ----------  ----------   ----------------
.const     0    0000003c    00000da4     
                  0000003c    000006b4     radio_setup.obj (.const:patchGenfskRfe)
                  000006f0    0000028c     radio_setup.obj (.const:patchImageGenfsk)
                  0000097c    00000101     rtsv7M3_T_le_eabi.lib : ctype.obj (.const:.string:_ctypes_)
                  00000a7d    00000001     tags-cc1310_pem3.oem3 (.const:xdc_runtime_Text_charTab__A)
                  00000a7e    00000002     tags-cc1310_pem3.oem3 (.const:ti_sysbios_family_arm_m3_Timer_Module__id__C)
                  00000a80    00000054     drivers_cc13xxware.aem3 : SPICC26XXDMA.oem3 (.const)
                  00000ad4    0000004c                             : PowerCC26XX.oem3 (.const:resourceDB)
                  00000b20    00000048     tags-cc1310_pem3.oem3 (.const:.string)
                  00000b68    00000040     CC1310_LAUNCHXL.obj (.const:BoardGpioInitTable)
                  00000ba8    00000040     drivers_cc13xxware.aem3 : UARTCC26XX.oem3 (.const)
                  00000be8    00000038     CC1310_LAUNCHXL.obj (.const:spiCC26XXDMAHWAttrs)
                  00000c20    0000002c     tags-cc1310_pem3.oem3 (.const:xdc_runtime_Startup_sfxnTab__A)
                  00000c4c    00000028     drivers_cc13xxware.aem3 : UARTCC26XX.oem3 (.const:UARTCC26XX_fxnTable)
                  00000c74    00000024     CC1310_LAUNCHXL.obj (.const:SPI_config)
                  00000c98    00000024     drivers_cc13xxware.aem3 : UART.oem3 (.const:UART_defaultParams)
                  00000cbc    00000020                             : I2CCC26XX.oem3 (.const)
                  00000cdc    00000020                             : SPI.oem3 (.const)
                  00000cfc    00000018     CC1310_LAUNCHXL.obj (.const:I2C_config)
                  00000d14    00000018     CC1310_LAUNCHXL.obj (.const:UART_config)
                  00000d2c    00000018     CC1310_LAUNCHXL.obj (.const:i2cCC26xxHWAttrs)
                  00000d44    00000018     CC1310_LAUNCHXL.obj (.const:uartCC26XXHWAttrs)
                  00000d5c    00000016     tags-cc1310_pem3.oem3 (.const:xdc_runtime_Startup_sfxnRts__A)
                  00000d72    00000002     --HOLE-- [fill = 0]
                  00000d74    00000010     CC1310_LAUNCHXL.obj (.const:PowerCC26XX_config)
                  00000d84    00000010     CC1310_LAUNCHXL.obj (.const:UDMACC26XX_config)
                  00000d94    00000010     drivers_cc13xxware.aem3 : I2C.oem3 (.const)
                  00000da4    0000000c     tags-cc1310_pem3.oem3 (.const:xdc_runtime_Startup_firstFxns__A)
                  00000db0    00000008     CC1310_LAUNCHXL.obj (.const:PINCC26XX_hwAttrs)
                  00000db8    00000008     CC1310_LAUNCHXL.obj (.const:udmaHWAttrs)
                  00000dc0    00000005     uart.obj (.const:.string)
                  00000dc5    00000003     --HOLE-- [fill = 0]
                  00000dc8    00000004     tags-cc1310_pem3.oem3 (.const:ti_sysbios_family_arm_m3_Timer_E_cannotSupport__C)
                  00000dcc    00000004     tags-cc1310_pem3.oem3 (.const:ti_sysbios_family_arm_m3_Timer_startupNeeded__C)
                  00000dd0    00000004     tags-cc1310_pem3.oem3 (.const:ti_sysbios_knl_Clock_tickPeriod__C)
                  00000dd4    00000004     tags-cc1310_pem3.oem3 (.const:ti_sysbios_knl_Clock_triggerClock__C)
                  00000dd8    00000004     tags-cc1310_pem3.oem3 (.const:ti_sysbios_knl_Idle_funcList__A)
                  00000ddc    00000004     tags-cc1310_pem3.oem3 (.const:xdc_runtime_System_extendFxn__C)

.text      0    000014f0    00008164     
                  000014f0    0000109a     rtsv7M3_T_le_eabi.lib : _printfi.obj (.text)
                  0000258a    00000002     drivers_cc13xxware.aem3 : SPICC26XXDMA.oem3 (.text:SPICC26XXDMA_serviceISR)
                  0000258c    00000338     rom_sysbios.aem3 : rom_sysbios.obj (.text:xdc_runtime_System_doPrint__I)
                  000028c4    0000030c     rtsv7M3_T_le_eabi.lib : lowlev.obj (.text)
                  00002bd0    000002d4                           : trgdrv.obj (.text)
                  00002ea4    00000230     driverlib.lib : sys_ctrl.obj (.text:NOROM_SysCtrlSetRechargeBeforePowerDown)
                  000030d4    00000228     drivers_cc13xxware.aem3 : PowerCC26XX.oem3 (.text:Power_sleep)
                  000032fc    000001f4     rtsv7M3_T_le_eabi.lib : ull_div_t2.obj (.text)
                  000034f0    000001ec     drivers_cc13xxware.aem3 : PowerCC26XX_calibrateRCOSC.oem3 (.text:calibrateRcoscHf1)
                  000036dc    000001c4                             : PINCC26XX.oem3 (.text:PIN_init)
                  000038a0    000001c4     rtsv7M3_T_le_eabi.lib : fopen.obj (.text)
                  00003a64    000001b6                           : fd_add_t2.obj (.text)
                  00003c1a    00000002     drivers_cc13xxware.aem3 : PowerCC26XX.oem3 (.text:emptyClockFunc)
                  00003c1c    000001a0                             : PowerCC26XX_calibrateRCOSC.oem3 (.text:PowerCC26XX_doCalibrate)
                  00003dbc    00000194     uart.obj (.text:uartTasks_init)
                  00003f50    00000190     drivers_cc13xxware.aem3 : UARTCC26XX.oem3 (.text:UARTCC26XX_open)
                  000040e0    00000168     tags-cc1310_pem3.oem3 (.text:xdc_runtime_System_printfExtend__I)
                  00004248    00000160     drivers_cc13xxware.aem3 : SPICC26XXDMA.oem3 (.text:SPICC26XXDMA_initIO)
                  000043a8    00000150     leds.obj (.text:leds_init)
                  000044f8    00000148     drivers_cc13xxware.aem3 : SPICC26XXDMA.oem3 (.text:SPICC26XXDMA_open)
                  00004640    00000136     rtsv7M3_T_le_eabi.lib : fd_div_t2.obj (.text)
                  00004776    00000002                           : i_div0.obj (.text)
                  00004778    00000130     driverlib.lib : setup.obj (.text:NOROM_SetupAfterColdResetWakeupFromShutDownCfg3)
                  000048a8    0000012c     drivers_cc13xxware.aem3 : PowerCC26XX.oem3 (.text:Power_init)
                  000049d4    00000124     i2c_sensors.obj (.text:testTaskFunction)
                  00004af8    00000110     rtsv7M3_T_le_eabi.lib : xdscale.obj (.text)
                  00004c08    000000fc     drivers_cc13xxware.aem3 : UARTCC26XX.oem3 (.text:UARTCC26XX_write)
                  00004d04    000000fc     rtsv7M3_T_le_eabi.lib : fd_mul_t2.obj (.text)
                  00004e00    000000f8     drivers_cc13xxware.aem3 : I2CCC26XX.oem3 (.text:I2CCC26XX_open)
                  00004ef8    000000f8     radio_setup.obj (.text:radioSetup_init)
                  00004ff0    000000ec     driverlib.lib : setup.obj (.text:NOROM_SetupAfterColdResetWakeupFromShutDownCfg2)
                  000050dc    000000ec     drivers_cc13xxware.aem3 : SPICC26XXDMA.oem3 (.text:SPICC26XXDMA_transferCancel)
                  000051c8    000000ec                             : UARTCC26XX.oem3 (.text:UARTCC26XX_hwiIntFxn)
                  000052b4    000000e8                             : I2CCC26XX.oem3 (.text:I2CCC26XX_hwiFxn)
                  0000539c    000000dc     rtsv7M3_T_le_eabi.lib : setvbuf.obj (.text)
                  00005478    000000dc     uart.obj (.text:uartRxTaskFunction)
                  00005554    000000d4     drivers_cc13xxware.aem3 : PowerCC26XX.oem3 (.text:Power_releaseDependency)
                  00005628    000000d4                             : SPICC26XXDMA.oem3 (.text:SPICC26XXDMA_configDMA)
                  000056fc    000000d0                             : PowerCC26XX.oem3 (.text:Power_setDependency)
                  000057cc    000000cc     driverlib.lib : setup.obj (.text:TrimAfterColdResetWakeupFromShutDown)
                  00005898    000000c8     drivers_cc13xxware.aem3 : UARTCC26XX.oem3 (.text:UARTCC26XX_initHw)
                  00005960    000000c8     rtsv7M3_T_le_eabi.lib : fflush.obj (.text)
                  00005a28    000000c4     drivers_cc13xxware.aem3 : SPICC26XXDMA.oem3 (.text:SPICC26XXDMA_transfer)
                  00005aec    000000c2                             : I2CCC26XX.oem3 (.text:I2CCC26XX_transfer)
                  00005bae    000000be     rtsv7M3_T_le_eabi.lib : xdnorm.obj (.text)
                  00005c6c    000000bc     power_cc13xx_tirtos.aem3 : PowerCC26XX_tirtos.oem3 (.text:PowerCC26XX_standbyPolicy)
                  00005d28    000000bc     drivers_cc13xxware.aem3 : UARTCC26XX.oem3 (.text:UARTCC26XX_read)
                  00005de4    000000bc     receive.obj (.text:receive_init)
                  00005ea0    000000b8     drivers_cc13xxware.aem3 : PINCC26XX.oem3 (.text:PINCC26XX_setIoCfg)
                  00005f58    000000ac     rtsv7M3_T_le_eabi.lib : _io_perm.obj (.text)
                  00006004    000000a4     driverlib.lib : setup.obj (.text:NOROM_SetupTrimDevice)
                  000060a8    000000a4     i2c_sensors.obj (.text:i2cSensorsInit)
                  0000614c    000000a2     drivers_cc13xxware.aem3 : SPICC26XXDMA.oem3 (.text:SPICC26XXDMA_hwiFxn)
                  000061ee    00000002     rom_sysbios.aem3 : rom_sysbios.obj (.text:ti_sysbios_BIOS_linkedWithIncorrectBootLibrary__E)
                  000061f0    000000a0     driverlib.lib : setup.obj (.text:NOROM_SetupAfterColdResetWakeupFromShutDownCfg1)
                  00006290    000000a0     auto_init.aem3 : auto_init.oem3 (.text)
                  00006330    000000a0     uart.obj (.text:uartTxTaskFunction)
                  000063d0    0000009c     rtsv7M3_T_le_eabi.lib : memcpy_t2.obj (.text)
                  0000646c    00000098                           : fclose.obj (.text)
                  00006504    00000098                           : fputc.obj (.text)
                  0000659c    00000098     rom_sysbios.aem3 : rom_sysbios.obj (.text:ti_sysbios_knl_Clock_workFuncDynamic__E)
                  00006634    00000094     drivers_cc13xxware.aem3 : PINCC26XX.oem3 (.text:PIN_open)
                  000066c8    00000094     leds.obj (.text:ledsTaskFunction)
                  0000675c    00000094     drivers_cc13xxware.aem3 : UARTCC26XX.oem3 (.text:writeFinishedDoCallback)
                  000067f0    00000090                             : I2CCC26XX.oem3 (.text:I2CCC26XX_cancel)
                  00006880    00000090                             : PowerCC26XX.oem3 (.text:switchXOSCHFclockFunc)
                  00006910    0000008c                             : I2CCC26XX.oem3 (.text:I2CCC26XX_primeTransfer)
                  0000699c    0000008c     rf_queue_pointer.obj (.text:RFQueue_defineQueue)
                  00006a28    0000008c     drivers_cc13xxware.aem3 : SPICC26XXDMA.oem3 (.text:SPICC26XXDMA_control)
                  00006ab4    0000008c                             : UARTCC26XX.oem3 (.text:UARTCC26XX_initIO)
                  00006b40    0000008c                             : UARTCC26XX.oem3 (.text:UARTCC26XX_writeCancel)
                  00006bcc    0000008c                             : PowerCC26XX.oem3 (.text:disableLFClockQualifiers)
                  00006c58    00000088                             : PowerCC26XX_calibrateRCOSC.oem3 (.text:calibrateRcoscHf2)
                  00006ce0    00000086     rtsv7M3_T_le_eabi.lib : fd_cmp_t2.obj (.text:__aeabi_cdcmple)
                  00006d66    00000086                           : fd_cmp_t2.obj (.text:__aeabi_cdrcmple)
                  00006dec    0000007c     main.obj (.text:main)
                  00006e68    0000007c     radio_setup.obj (.text:rf_patch_rfe_genfsk)
                  00006ee4    0000007a     rtsv7M3_T_le_eabi.lib : memset_t2.obj (.text)
                  00006f5e    00000002     tags-cc1310_pem3.oem3 (.text:ti_sysbios_BIOS_nullFunc__I)
                  00006f60    00000078     drivers_cc13xxware.aem3 : UARTCC26XX.oem3 (.text:UARTCC26XX_close)
                  00006fd8    00000074                             : PowerCC26XX_calibrateRCOSC.oem3 (.text:PowerCC26XX_auxISR)
                  0000704c    00000074                             : UARTCC26XX.oem3 (.text:writeTxFifoFlush)
                  000070c0    00000070     driverlib.lib : chipinfo.obj (.text:NOROM_ChipInfo_GetHwRevision)
                  00007130    00000070                   : setup.obj (.text:NOROM_SetupSetVddrLevel)
                  000071a0    00000070     drivers_cc13xxware.aem3 : UARTCC26XX.oem3 (.text:UARTCC26XX_readCancel)
                  00007210    0000006d     rom_sysbios.aem3 : rom_sysbios.obj (.text:xdc_runtime_System_formatNum__I)
                  0000727d    00000001     --HOLE-- [fill = 0]
                  0000727e    00000002                      : rom_sysbios.obj (.text:ti_sysbios_knl_Clock_triggerFunc__I)
                  00007280    0000006c     driverlib.lib : setup.obj (.text:NOROM_SetupGetTrimForAmpcompCtrl)
                  000072ec    0000006c     drivers_cc13xxware.aem3 : PINCC26XX.oem3 (.text:PIN_add)
                  00007358    0000006c                             : PowerCC26XX.oem3 (.text:PowerCC26XX_calibrate)
                  000073c4    0000006a     rtsv7M3_T_le_eabi.lib : copy_decompress_rle.obj (.text)
                  0000742e    00000002     tags-cc1310_pem3.oem3 (.text:ti_sysbios_rom_cortexm_cc13xx_CC13xx_badRomRevision__E)
                  00007430    00000068     driverlib.lib : setup.obj (.text:NOROM_SetupGetTrimForAnabypassValue1)
                  00007498    00000068                   : sys_ctrl.obj (.text:NOROM_SysCtrl_DCDC_VoltageConditionalControl)
                  00007500    00000068     rtsv7M3_T_le_eabi.lib : trgmsg.obj (.text)
                  00007568    00000066                           : xdunscal.obj (.text)
                  000075ce    00000002     rom_sysbios.aem3 : rom_sysbios.obj (.text:xdc_runtime_SysCallback_defaultAbort)
                  000075d0    00000064     drivers_cc13xxware.aem3 : I2CCC26XX.oem3 (.text:I2CCC26XX_close)
                  00007634    00000064                             : I2CCC26XX.oem3 (.text:I2CCC26XX_initIO)
                  00007698    00000064     driverlib.lib : osc.obj (.text:NOROM_OSCHF_AttemptToSwitchToXosc)
                  000076fc    00000064     rtsv7M3_T_le_eabi.lib : fseek.obj (.text)
                  00007760    00000064     rom_sysbios.aem3 : rom_sysbios.obj (.text:ti_sysbios_family_arm_cc26xx_Timer_start__E)
                  000077c4    00000060     driverlib.lib : osc.obj (.text:NOROM_OSCClockSourceSet)
                  00007824    00000060     drivers_cc13xxware.aem3 : PowerCC26XX_calibrateRCOSC.oem3 (.text:PowerCC26XX_RCOSC_clockFunc)
                  00007884    00000060                             : SPICC26XXDMA.oem3 (.text:SPICC26XXDMA_initHw)
                  000078e4    00000060     rtsv7M3_T_le_eabi.lib : sprintf.obj (.text)
                  00007944    00000060     drivers_cc13xxware.aem3 : PowerCC26XX_calibrateRCOSC.oem3 (.text:updateSubSecInc)
                  000079a4    0000005c     driverlib.lib : sys_ctrl.obj (.text:NOROM_SysCtrlAdjustRechargeAfterPowerDown)
                  00007a00    0000005c     drivers_cc13xxware.aem3 : PINCC26XX.oem3 (.text:PIN_remove)
                  00007a5c    0000005c                             : UDMACC26XX.oem3 (.text:UDMACC26XX_open)
                  00007ab8    0000005c     tags-cc1310_pem3.oem3 (.text:xdc_runtime_Startup_getState__I)
                  00007b14    0000005a     drivers_cc13xxware.aem3 : SPICC26XXDMA.oem3 (.text:SPICC26XXDMA_close)
                  00007b6e    00000058                             : I2CCC26XX.oem3 (.text:I2CCC26XX_swiFxn)
                  00007bc6    00000002     rom_sysbios.aem3 : rom_sysbios.obj (.text:xdc_runtime_SysCallback_defaultExit)
                  00007bc8    00000058     drivers_cc13xxware.aem3 : PowerCC26XX_calibrateRCOSC.oem3 (.text:PowerCC26XX_initiateCalibration)
                  00007c20    00000058                             : UARTCC26XX.oem3 (.text:UARTCC26XX_control)
                  00007c78    00000056     rtsv7M3_T_le_eabi.lib : ltoa.obj (.text)
                  00007cce    00000002     --HOLE-- [fill = 0]
                  00007cd0    00000054     drivers_cc13xxware.aem3 : PowerCC26XX.oem3 (.text:configureXOSCHF)
                  00007d24    00000052                             : SPICC26XXDMA.oem3 (.text:SPICC26XXDMA_swiFxn)
                  00007d76    00000002     --HOLE-- [fill = 0]
                  00007d78    00000050     driverlib.lib : setup.obj (.text:NOROM_SetupSetCacheModeAccordingToCcfgSetting)
                  00007dc8    00000050     radio_setup.obj (.text:applyGenfskPatch)
                  00007e18    0000004c     drivers_cc13xxware.aem3 : UARTCC26XX.oem3 (.text:UARTCC26XX_swiIntFxn)
                  00007e64    0000004c     rtsv7M3_T_le_eabi.lib : atoi.obj (.text)
                  00007eb0    0000004c                           : cpy_tbl.obj (.text)
                  00007efc    0000004c     drivers_cc13xxware.aem3 : UARTCC26XX.oem3 (.text:startTxFifoEmptyClk)
                  00007f48    00000048                             : I2CCC26XX.oem3 (.text:I2CCC26XX_initHw)
                  00007f90    00000048     driverlib.lib : chipinfo.obj (.text:NOROM_ChipInfo_GetChipFamily)
                  00007fd8    00000048     drivers_cc13xxware.aem3 : PINCC26XX.oem3 (.text:PIN_setOutputEnable)
                  00008020    00000048                             : PINCC26XX.oem3 (.text:PIN_swi)
                  00008068    00000048                             : PowerCC26XX.oem3 (.text:notify)
                  000080b0    00000048     rtsv7M3_T_le_eabi.lib : fd_toi_t2.obj (.text)
                  000080f8    00000048     rom_sysbios.aem3 : rom_sysbios.obj (.text:ti_sysbios_family_arm_m3_Timer_setPeriod__E)
                  00008140    00000046     rtsv7M3_T_le_eabi.lib : ldexp.obj (.text)
                  00008186    00000002     --HOLE-- [fill = 0]
                  00008188    00000044     boot.aem3 : boot.oem3 (.text)
                  000081cc    00000044     rtsv7M3_T_le_eabi.lib : fd_tou_t2.obj (.text)
                  00008210    00000044     i2c_sensors.obj (.text:testTask_init)
                  00008254    00000044     rom_sysbios.aem3 : rom_sysbios.obj (.text:ti_sysbios_family_arm_m3_Timer_start__E)
                  00008298    00000040     rtsv7M3_T_le_eabi.lib : signal.obj (.text)
                  000082d8    00000040                           : u_divt2.obj (.text)
                  00008318    0000003c     driverlib.lib : osc.obj (.text:NOROM_OSC_HPOSCRelativeFrequencyOffsetGet)
                  00008354    0000003c     drivers_cc13xxware.aem3 : PINCC26XX.oem3 (.text:PINCC26XX_getConfig)
                  00008390    0000003c                             : PINCC26XX.oem3 (.text:PIN_setOutputValue)
                  000083cc    0000003c                             : SPICC26XXDMA.oem3 (.text:SPICC26XXDMA_csnCallback)
                  00008408    0000003c     uart.obj (.text:uartLocalRead)
                  00008444    0000003c     uart.obj (.text:uartLocalWrite)
                  00008480    00000038     drivers_cc13xxware.aem3 : PINCC26XX.oem3 (.text:PIN_setInterrupt)
                  000084b8    00000038                             : SPI.oem3 (.text:SPI_init)
                  000084f0    00000038                             : UART.oem3 (.text:UART_init)
                  00008528    00000038     buffers.obj (.text:buffers_init)
                  00008560    00000038     drivers_cc13xxware.aem3 : UARTCC26XX.oem3 (.text:readData)
                  00008598    00000038     rtsv7M3_T_le_eabi.lib : fs_tod_t2.obj (.text)
                  000085d0    00000038     rom_sysbios.aem3 : rom_sysbios.obj (.text:ti_sysbios_family_arm_cc26xx_Timer_getCurrentTick__E)
                  00008608    00000038     drivers_cc13xxware.aem3 : UARTCC26XX.oem3 (.text:writeData)
                  00008640    00000036                             : UDMACC26XX.oem3 (.text:UDMACC26XX_close)
                  00008676    00000002     --HOLE-- [fill = 0]
                  00008678    00000034     driverlib.lib : osc.obj (.text:NOROM_OSCHF_SwitchToRcOscTurnOffXosc)
                  000086ac    00000034     drivers_cc13xxware.aem3 : PINCC26XX.oem3 (.text:PIN_setConfig)
                  000086e0    00000034     rtsv7M3_T_le_eabi.lib : feraiseexcept.obj (.text)
                  00008714    00000034     tags-cc1310_pem3.oem3 (.text:ti_sysbios_BIOS_startFunc__I)
                  00008748    00000034     rom_sysbios.aem3 : rom_sysbios.obj (.text:ti_sysbios_family_arm_m3_Timer_initDevice__I)
                  0000877c    00000032                      : rom_sysbios.obj (.text:ti_sysbios_family_arm_cc26xx_Timer_setNextTick__E)
                  000087ae    00000002     --HOLE-- [fill = 0]
                  000087b0    00000030     drivers_cc13xxware.aem3 : I2C.oem3 (.text:I2C_open)
                  000087e0    00000030     driverlib.lib : setup.obj (.text:NOROM_SetupSetAonRtcSubSecInc)
                  00008810    00000030     drivers_cc13xxware.aem3 : PowerCC26XX.oem3 (.text:Power_releaseConstraint)
                  00008840    00000030                             : PowerCC26XX.oem3 (.text:Power_setConstraint)
                  00008870    00000030                             : SPI.oem3 (.text:SPI_open)
                  000088a0    00000030                             : UART.oem3 (.text:UART_open)
                  000088d0    00000030     rtsv7M3_T_le_eabi.lib : strncpy.obj (.text)
                  00008900    00000030                           : xferaise.obj (.text)
                  00008930    00000030     tags-cc1310_pem3.oem3 (.text:ti_sysbios_BIOS_atExitFunc__I)
                  00008960    00000030     rom_sysbios.aem3 : rom_sysbios.obj (.text:ti_sysbios_family_arm_cc26xx_Timer_initDevice__I)
                  00008990    00000030                      : rom_sysbios.obj (.text:ti_sysbios_family_arm_cc26xx_Timer_setThreshold__I)
                  000089c0    0000002e     tags-cc1310_pem3.oem3 (.text:malloc)
                  000089ee    0000002e     rtsv7M3_T_le_eabi.lib : i_tofd_t2.obj (.text)
                  00008a1c    0000002e                           : raise.obj (.text)
                  00008a4a    00000002     --HOLE-- [fill = 0]
                  00008a4c    0000002c     driverlib.lib : ddi.obj (.text:NOROM_DDI32RegWrite)
                  00008a78    0000002c                   : osc.obj (.text:NOROM_OSCClockSourceGet)
                  00008aa4    0000002c                   : setup.obj (.text:NOROM_SetupGetTrimForRadcExtCfg)
                  00008ad0    0000002c     drivers_cc13xxware.aem3 : PINCC26XX.oem3 (.text:PINCC26XX_setMux)
                  00008afc    0000002c     rom_sysbios.aem3 : rom_sysbios.obj (.text:ti_sysbios_knl_Clock_getTicksUntilInterrupt__E)
                  00008b28    0000002a     rtsv7M3_T_le_eabi.lib : xdclass.obj (.text)
                  00008b52    0000002a     rom_sysbios.aem3 : rom_sysbios.obj (.text:xdc_runtime_System_putchar__I)
                  00008b7c    00000028     driverlib.lib : aon_batmon.obj (.text:NOROM_AONBatMonTemperatureGetDegC)
                  00008ba4    00000028     drivers_cc13xxware.aem3 : PowerCC26XX.oem3 (.text:Power_registerNotify)
                  00008bcc    00000028                             : SPICC26XXDMA.oem3 (.text:SPICC26XXDMA_flushFifos)
                  00008bf4    00000028     driverlib.lib : adi.obj (.text:SafeHapiVoid)
                  00008c1c    00000028     rom_sysbios.aem3 : rom_sysbios.obj (.text:ti_sysbios_family_arm_cc26xx_Timer_getMaxTicks__E)
                  00008c44    00000026     drivers_cc13xxware.aem3 : List.oem3 (.text:List_put)
                  00008c6a    00000002     --HOLE-- [fill = 0]
                  00008c6c    00000024                             : PINCC26XX.oem3 (.text:PINCC26XX_getPinCount)
                  00008c90    00000024                             : PowerCC26XX_calibrateRCOSC.oem3 (.text:getTdcSemaphore)
                  00008cb4    00000024     tags-cc1310_pem3.oem3 (.text:ti_sysbios_BIOS_registerRTSLock__I)
                  00008cd8    00000024     tags-cc1310_pem3.oem3 (.text:ti_sysbios_BIOS_removeRTSLock__I)
                  00008cfc    00000024     rom_sysbios.aem3 : rom_sysbios.obj (.text:ti_sysbios_family_arm_m3_Timer_Module_startup__E)
                  00008d20    00000024                      : rom_sysbios.obj (.text:ti_sysbios_family_arm_m3_Timer_postInit__I)
                  00008d44    00000024                      : rom_sysbios.obj (.text:ti_sysbios_family_arm_m3_Timer_startup__E)
                  00008d68    00000024                      : rom_sysbios.obj (.text:xdc_runtime_System_vprintf__E)
                  00008d8c    00000022     rtsv7M3_T_le_eabi.lib : frexp.obj (.text)
                  00008dae    00000002     --HOLE-- [fill = 0]
                  00008db0    00000020     driverlib.lib : setup.obj (.text:NOROM_SetupGetTrimForXoscHfCtl)
                  00008dd0    00000020     drivers_cc13xxware.aem3 : PowerCC26XX.oem3 (.text:Power_unregisterNotify)
                  00008df0    00000020     tags-cc1310_pem3.oem3 (.text:ti_sysbios_BIOS_rtsLock__I)
                  00008e10    00000020     rom_sysbios.aem3 : rom_sysbios.obj (.text:ti_sysbios_knl_Clock_stop__E)
                  00008e30    00000020                      : rom_sysbios.obj (.text:xdc_runtime_SysStd_abort__E)
                  00008e50    0000001e     drivers_cc13xxware.aem3 : PINCC26XX.oem3 (.text:PIN_close)
                  00008e6e    0000001e                             : PowerCC26XX.oem3 (.text:Power_getTransitionLatency)
                  00008e8c    0000001c     driverlib.lib : setup.obj (.text:NOROM_SetupGetTrimForAmpcompTh2)
                  00008ea8    0000001c                   : setup.obj (.text:NOROM_SetupGetTrimForRcOscLfRtuneCtuneTrim)
                  00008ec4    0000001c     drivers_cc13xxware.aem3 : PINCC26XX.oem3 (.text:PINCC26XX_setIoCfgMux)
                  00008ee0    0000001c                             : PINCC26XX.oem3 (.text:PIN_hwi)
                  00008efc    0000001c                             : UDMACC26XX.oem3 (.text:UDMACC26XX_initHw)
                  00008f18    0000001c     rom_sysbios.aem3 : rom_sysbios.obj (.text:ti_sysbios_family_arm_cc26xx_Timer_dynamicStub__E)
                  00008f34    0000001c                      : rom_sysbios.obj (.text:ti_sysbios_family_arm_m3_Hwi_clearInterrupt__E)
                  00008f50    0000001c                      : rom_sysbios.obj (.text:ti_sysbios_family_arm_m3_Timer_stop__E)
                  00008f6c    0000001a     drivers_cc13xxware.aem3 : List.oem3 (.text:List_remove)
                  00008f86    0000001a     rtsv7M3_T_le_eabi.lib : memccpy.obj (.text)
                  00008fa0    0000001a     rom_sysbios.aem3 : rom_sysbios_config.obj (.text:xdc_runtime_System_printf__E)
                  00008fba    00000002     --HOLE-- [fill = 0]
                  00008fbc    00000018     driverlib.lib : aon_rtc.obj (.text:NOROM_AONRTCCurrentCompareValueGet)
                  00008fd4    00000018                   : chipinfo.obj (.text:NOROM_ChipInfo_GetPackageType)
                  00008fec    00000018                   : osc.obj (.text:NOROM_OSCHF_TurnOnXosc)
                  00009004    00000018                   : setup.obj (.text:NOROM_SetupGetTrimForAdcShModeEn)
                  0000901c    00000018                   : setup.obj (.text:NOROM_SetupGetTrimForAdcShVbufEn)
                  00009034    00000018                   : setup.obj (.text:NOROM_SetupGetTrimForAmpcompTh1)
                  0000904c    00000018                   : setup.obj (.text:NOROM_SetupGetTrimForDblrLoopFilterResetVoltage)
                  00009064    00000018                   : setup.obj (.text:NOROM_SetupGetTrimForRcOscLfIBiasTrim)
                  0000907c    00000018                   : setup.obj (.text:NOROM_SetupGetTrimForXoscLfRegulatorAndCmirrwrRatio)
                  00009094    00000018     drivers_cc13xxware.aem3 : PINCC26XX.oem3 (.text:PIN_getConfig)
                  000090ac    00000018                             : PowerCC26XX.oem3 (.text:Power_idleFunc)
                  000090c4    00000018                             : UARTCC26XX.oem3 (.text:UARTCC26XX_init)
                  000090dc    00000018                             : UART.oem3 (.text:UART_Params_init)
                  000090f4    00000018                             : PowerCC26XX.oem3 (.text:configureRFCoreClocks)
                  0000910c    00000018     tags-cc1310_pem3.oem3 (.text:free)
                  00009124    00000018     rtsv7M3_T_le_eabi.lib : args_main.obj (.text)
                  0000913c    00000018                           : ll_mul_t2.obj (.text)
                  00009154    00000018                           : strcmp.obj (.text)
                  0000916c    00000018     tags-cc1310_pem3.oem3 (.text:ti_sysbios_BIOS_rtsUnlock__I)
                  00009184    00000018     tags-cc1310_pem3.oem3 (.text:ti_sysbios_family_arm_m3_Timer_Module__startupDone__F)
                  0000919c    00000018     rom_sysbios.aem3 : rom_sysbios.obj (.text:ti_sysbios_knl_Swi_or__E)
                  000091b4    00000018     tags-cc1310_pem3.oem3 (.text:ti_sysbios_rom_cortexm_cc13xx_CC13xx_checkRevision__E)
                  000091cc    00000016     driverlib.lib : chipinfo.obj (.text:NOROM_ThisCodeIsBuiltForCC13xxHwRev20AndLater_HaltIfViolated)
                  000091e2    00000016     rtsv7M3_T_le_eabi.lib : strchr.obj (.text)
                  000091f8    00000016                           : strcpy.obj (.text)
                  0000920e    00000016     tags-cc1310_pem3.oem3 (.text:ti_sysbios_BIOS_exitFunc__I)
                  00009224    00000014     driverlib.lib : aon_rtc.obj (.text:NOROM_AONRTCCurrent64BitValueGet)
                  00009238    00000014     drivers_cc13xxware.aem3 : SPI.oem3 (.text:SPI_Params_init)
                  0000924c    00000014     rtsv7M3_T_le_eabi.lib : _lock.obj (.text)
                  00009260    00000014                           : strlen.obj (.text)
                  00009274    00000014     tags-cc1310_pem3.oem3 (.text:ti_sysbios_knl_Clock_doTick__I)
                  00009288    00000012     rom_sysbios.aem3 : rom_sysbios.obj (.text:ti_sysbios_hal_Timer_Module_startup__E)
                  0000929a    00000012     tags-cc1310_pem3.oem3 (.text:xdc_runtime_Startup_exec__I)
                  000092ac    00000010     drivers_cc13xxware.aem3 : I2C.oem3 (.text:I2C_Params_init)
                  000092bc    00000010     driverlib.lib : setup.obj (.text:NOROM_SetupGetTrimForXoscHfFastStart)
                  000092cc    00000010                   : setup.obj (.text:NOROM_SetupGetTrimForXoscHfIbiastherm)
                  000092dc    00000010     i2c_sensors.obj (.text:flashDeselect)
                  000092ec    00000010     i2c_sensors.obj (.text:flashSelect)
                  000092fc    00000010     drivers_cc13xxware.aem3 : I2CCC26XX.oem3 (.text:i2cPostNotify)
                  0000930c    00000010                             : UARTCC26XX.oem3 (.text:uartPostNotify)
                  0000931c    0000000e     driverlib.lib : setup.obj (.text:NOROM_SetupSignExtendVddrTrimValue)
                  0000932a    0000000e                   : vims.obj (.text:NOROM_VIMSModeGet)
                  00009338    0000000e     drivers_cc13xxware.aem3 : SPICC26XXDMA.oem3 (.text:SPICC26XXDMA_init)
                  00009346    0000000e     rtsv7M3_T_le_eabi.lib : copy_decompress_none.obj (.text:decompress:none)
                  00009354    0000000e     rom_sysbios.aem3 : rom_sysbios.obj (.text:ti_sysbios_family_arm_cc26xx_TimestampProvider_get32__E)
                  00009362    0000000c     driverlib.lib : cpu.obj (.text:NOROM_CPUcpsid)
                  0000936e    0000000c                   : cpu.obj (.text:NOROM_CPUcpsie)
                  0000937a    0000000c     drivers_cc13xxware.aem3 : PINCC26XX.oem3 (.text:PIN_registerIntCb)
                  00009386    00000002     --HOLE-- [fill = 0]
                  00009388    0000000c                             : PowerCC26XX.oem3 (.text:Power_getConstraintMask)
                  00009394    0000000c                             : PowerCC26XX.oem3 (.text:Power_getDependencyCount)
                  000093a0    0000000c     rtsv7M3_T_le_eabi.lib : copy_zero_init.obj (.text:decompress:ZI)
                  000093ac    0000000c     drivers_cc13xxware.aem3 : SPICC26XXDMA.oem3 (.text:spiPostNotify)
                  000093b8    0000000c     rom_sysbios.aem3 : rom_sysbios.obj (.text:ti_sysbios_knl_Swi_getTrigger__E)
                  000093c4    0000000c     uart.obj (.text:uartRxCallback)
                  000093d0    0000000c     uart.obj (.text:uartTxCallback)
                  000093dc    0000000c     tags-cc1310_pem3.oem3 (.text:xdc_runtime_Startup_reset__I)
                  000093e8    0000000c     rom_sysbios.aem3 : rom_sysbios.obj (.text:xdc_runtime_Startup_rtsDone__E)
                  000093f4    0000000c                      : rom_sysbios.obj (.text:xdc_runtime_SysStd_exit__E)
                  00009400    0000000a     drivers_cc13xxware.aem3 : I2CCC26XX.oem3 (.text:I2CCC26XX_init)
                  0000940a    0000000a                             : List.oem3 (.text:List_empty)
                  00009414    0000000a                             : SPI.oem3 (.text:SPI_transfer)
                  0000941e    0000000a                             : UART.oem3 (.text:UART_read)
                  00009428    0000000a                             : UART.oem3 (.text:UART_write)
                  00009432    0000000a                             : UDMACC26XX.oem3 (.text:UDMACC26XX_hwiIntFxn)
                  0000943c    00000008                             : I2CCC26XX.oem3 (.text:I2CCC26XX_blockingCallback)
                  00009444    00000008                             : SPICC26XXDMA.oem3 (.text:SPICC26XXDMA_transferCallback)
                  0000944c    00000008                             : UARTCC26XX.oem3 (.text:readSemCallback)
                  00009454    00000008                             : UARTCC26XX.oem3 (.text:writeSemCallback)
                  0000945c    00000006                             : I2CCC26XX.oem3 (.text:I2CCC26XX_control)
                  00009462    00000006     driverlib.lib : cpu.obj (.text:NOROM_CPUdelay)
                  00009468    00000006     drivers_cc13xxware.aem3 : UARTCC26XX.oem3 (.text:UARTCC26XX_readPolling)
                  0000946e    00000006                             : UARTCC26XX.oem3 (.text:UARTCC26XX_writePolling)
                  00009474    00000006     rom_sysbios.aem3 : rom_sysbios.obj (.text:__xdc__init)
                  0000947a    00000006     rtsv7M3_T_le_eabi.lib : copy_decompress_rle.obj (.text:decompress:rle24)
                  00009480    00000004     tirtosport.aem3 : HwiP_tirtos.oem3 (.text:HwiP_disable)
                  00009484    00000004     drivers_cc13xxware.aem3 : List.oem3 (.text:List_head)
                  00009488    00000004                             : List.oem3 (.text:List_next)
                  0000948c    00000004                             : PowerCC26XX.oem3 (.text:nopResourceHandler)
                  00009490    00000004     radio_setup.obj (.text:rf_patch_cpe_genfsk)
                  00009494    00000004     rom_sysbios.aem3 : rom_sysbios.obj (.text:ti_sysbios_family_arm_cc26xx_Timer_getCount64__E)
                  00009498    00000004                      : rom_sysbios.obj (.text:xdc_runtime_SysStd_putch__E)
                  0000949c    00000004                      : rom_sysbios.obj (.text:xdc_runtime_SysStd_ready__E)
                  000094a0    00000004                      : rom_sysbios.obj (.text:xdc_runtime_System_printf_va__F)
                  000094a4    00000008     (.tramp.xdc_runtime_Startup_startMods__I.1)
                  000094ac    00000008     (.tramp.ti_sysbios_knl_Clock_logTick__E.1)
                  000094b4    00000008     (.tramp.ti_sysbios_BIOS_RtsGateProxy_leave__E.1)
                  000094bc    00000008     (.tramp.xdc_runtime_Memory_free__E.1)
                  000094c4    00000008     (.tramp.ti_sysbios_BIOS_RtsGateProxy_enter__E.1)
                  000094cc    00000008     (.tramp.xdc_runtime_Memory_alloc__E.1)
                  000094d4    00000008     (.tramp.xdc_runtime_Error_init__E.1)
                  000094dc    00000008     (.tramp.ti_sysbios_BIOS_setThreadType__E.1)
                  000094e4    00000008     (.tramp.ti_sysbios_knl_Task_startup__E.1)
                  000094ec    00000008     (.tramp.ti_sysbios_knl_Swi_startup__E.1)
                  000094f4    00000008     (.tramp.ti_sysbios_hal_Hwi_HwiProxy_startup__E.1)
                  000094fc    00000008     (.tramp.ti_sysbios_family_arm_cc26xx_Timer_startup__E.1)
                  00009504    00000008     (.tramp.xdc_runtime_System_atexit__E.1)
                  0000950c    00000008     (.tramp.xdc_runtime_System_exit__E.1)
                  00009514    00000008     (.tramp.xdc_runtime_Error_raiseX__E.1)
                  0000951c    00000008     (.tramp.ti_sysbios_knl_Clock_destruct.1)
                  00009524    00000008     (.tramp.ti_sysbios_knl_Semaphore_destruct.1)
                  0000952c    00000008     (.tramp.ti_sysbios_knl_Swi_destruct.1)
                  00009534    00000008     (.tramp.ti_sysbios_family_arm_m3_Hwi_destruct.1)
                  0000953c    00000008     (.tramp.ti_sysbios_BIOS_start__E.1)
                  00009544    00000008     (.tramp.ti_sysbios_knl_Clock_scheduleNextTick__E.1)
                  0000954c    00000008     (.tramp.ti_sysbios_knl_Clock_walkQueueDynamic__E.1)
                  00009554    00000008     (.tramp.ti_sysbios_knl_Clock_TimerProxy_getCurrentTick__E.1)
                  0000955c    00000008     (.tramp.ti_sysbios_knl_Semaphore_post__E.1)
                  00009564    00000008     (.tramp.ti_sysbios_family_arm_m3_Hwi_enableInterrupt__E.1)
                  0000956c    00000008     (.tramp.ti_sysbios_family_arm_m3_Hwi_disableInterrupt__E.1)
                  00009574    00000008     (.tramp.ti_sysbios_BIOS_getCpuFreq__E.1)
                  0000957c    00000008     (.tramp.ti_sysbios_knl_Swi_post__E.1)
                  00009584    00000008     (.tramp.ti_sysbios_knl_Semaphore_pend__E.1)
                  0000958c    00000008     (.tramp.ti_sysbios_knl_Mailbox_post__E.1)
                  00009594    00000008     (.tramp.ti_sysbios_knl_Task_sleep__E.1)
                  0000959c    00000008     (.tramp.ti_sysbios_knl_Mailbox_pend__E.1)
                  000095a4    00000008     (.tramp.ti_sysbios_knl_Clock_setTimeout__E.1)
                  000095ac    00000008     (.tramp.xdc_runtime_System_abort__E.1)
                  000095b4    00000008     (.tramp.ti_sysbios_knl_Clock_construct.1)
                  000095bc    00000008     (.tramp.ti_sysbios_knl_Clock_Params__init__S.1)
                  000095c4    00000008     (.tramp.ti_sysbios_family_arm_m3_Hwi_restoreFxn__E.1)
                  000095cc    00000008     (.tramp.ti_sysbios_family_arm_m3_Hwi_disableFxn__E.1)
                  000095d4    00000008     (.tramp.ti_sysbios_knl_Task_construct.1)
                  000095dc    00000008     (.tramp.ti_sysbios_knl_Task_Params__init__S.1)
                  000095e4    00000008     (.tramp.ti_sysbios_knl_Semaphore_create.1)
                  000095ec    00000008     (.tramp.ti_sysbios_knl_Mailbox_create.1)
                  000095f4    00000008     (.tramp.ti_sysbios_knl_Clock_start__E.1)
                  000095fc    00000008     (.tramp.xdc_runtime_System_abortSpin__E.1)
                  00009604    00000008     (.tramp.ti_sysbios_knl_Swi_construct.1)
                  0000960c    00000008     (.tramp.ti_sysbios_knl_Swi_Params__init__S.1)
                  00009614    00000008     (.tramp.ti_sysbios_family_arm_m3_Hwi_construct.1)
                  0000961c    00000008     (.tramp.ti_sysbios_family_arm_m3_Hwi_Params__init__S.1)
                  00009624    00000008     (.tramp.ti_sysbios_knl_Semaphore_construct.1)
                  0000962c    00000008     (.tramp.ti_sysbios_knl_Semaphore_Params__init__S.1)
                  00009634    00000008     (.tramp.ti_sysbios_knl_Task_restore__E.1)
                  0000963c    00000008     (.tramp.ti_sysbios_knl_Swi_restore__E.1)
                  00009644    00000008     (.tramp.ti_sysbios_knl_Swi_disable__E.1)
                  0000964c    00000008     (.tramp.ti_sysbios_knl_Task_disable__E.1)

.cinit     0    00009658    00000558     
                  00009658    0000037e     (.cinit..data.load) [load image, compression = rle]
                  000099d6    00000002     --HOLE-- [fill = 0]
                  000099d8    0000002c     (.cinit..data:ti_sysbios_family_arm_m3_Hwi_Module__state__V.load) [load image, compression = rle]
                  00009a04    00000004     --HOLE-- [fill = 0]
                  00009a08    0000002c     (.cinit..data:ti_sysbios_knl_Task_Module__state__V.load) [load image, compression = rle]
                  00009a34    00000004     --HOLE-- [fill = 0]
                  00009a38    00000021     (.cinit..data:ti_sysbios_knl_Clock_Module__state__V.load) [load image, compression = rle]
                  00009a59    00000007     --HOLE-- [fill = 0]
                  00009a60    0000001f     (.cinit..data:ti_sysbios_BIOS_Module__state__V.load) [load image, compression = rle]
                  00009a7f    00000001     --HOLE-- [fill = 0]
                  00009a80    00000011     (.cinit..data:ti_sysbios_knl_Swi_Module__state__V.load) [load image, compression = rle]
                  00009a91    00000007     --HOLE-- [fill = 0]
                  00009a98    0000000d     (.cinit..data:ti_sysbios_family_arm_cc26xx_Timer_Module__state__V.load) [load image, compression = rle]
                  00009aa5    00000003     --HOLE-- [fill = 0]
                  00009aa8    0000000c     (__TI_handler_table)
                  00009ab4    00000004     --HOLE-- [fill = 0]
                  00009ab8    0000000a     (.cinit..data:xdc_runtime_Memory_Module__state__V.load) [load image, compression = rle]
                  00009ac2    00000006     --HOLE-- [fill = 0]
                  00009ac8    00000009     (.cinit..data:ti_sysbios_family_arm_cc26xx_TimestampProvider_Module__state__V.load) [load image, compression = rle]
                  00009ad1    00000007     --HOLE-- [fill = 0]
                  00009ad8    00000009     (.cinit..data:xdc_runtime_Startup_Module__state__V.load) [load image, compression = rle]
                  00009ae1    00000007     --HOLE-- [fill = 0]
                  00009ae8    00000009     (.cinit..data:xdc_runtime_System_Module__state__V.load) [load image, compression = rle]
                  00009af1    00000007     --HOLE-- [fill = 0]
                  00009af8    00000008     (.cinit..TI.bound:dmaSpi0RxControlTableEntry.load) [load image, compression = zero_init]
                  00009b00    00000008     (.cinit..TI.bound:dmaSpi0TxControlTableEntry.load) [load image, compression = zero_init]
                  00009b08    00000008     (.cinit..TI.bound:dmaSpi1RxControlTableEntry.load) [load image, compression = zero_init]
                  00009b10    00000008     (.cinit..TI.bound:dmaSpi1TxControlTableEntry.load) [load image, compression = zero_init]
                  00009b18    00000008     (.cinit..bss.load) [load image, compression = zero_init]
                  00009b20    00000008     (.cinit..vecs.load) [load image, compression = zero_init]
                  00009b28    00000088     (__TI_cinit_table)

.init_array 
*          0    00000000    00000000     UNINITIALIZED

.resetVecs 
*          0    00000000    0000003c     
                  00000000    0000003c     tags-cc1310_pem3.oem3 (.resetVecs)

.const:ti_sysbios_knl_Task_Object__PARAMS__C 
*          0    00001000    0000003c     
                  00001000    0000003c     tags-cc1310_pem3.oem3 (.const:ti_sysbios_knl_Task_Object__PARAMS__C)

.const:ti_sysbios_knl_Mailbox_Object__PARAMS__C 
*          0    0000103c    00000034     
                  0000103c    00000034     tags-cc1310_pem3.oem3 (.const:ti_sysbios_knl_Mailbox_Object__PARAMS__C)

.const:ti_sysbios_family_arm_m3_Hwi_Object__PARAMS__C 
*          0    00001070    00000030     
                  00001070    00000030     tags-cc1310_pem3.oem3 (.const:ti_sysbios_family_arm_m3_Hwi_Object__PARAMS__C)

.const:ti_sysbios_hal_Hwi_Object__PARAMS__C 
*          0    000010a0    0000002c     
                  000010a0    0000002c     tags-cc1310_pem3.oem3 (.const:ti_sysbios_hal_Hwi_Object__PARAMS__C)

.const:ti_sysbios_heaps_HeapMem_Module__FXNS__C 
*          0    000010cc    00000028     
                  000010cc    00000028     tags-cc1310_pem3.oem3 (.const:ti_sysbios_heaps_HeapMem_Module__FXNS__C)

.const:ti_sysbios_knl_Swi_Object__PARAMS__C 
*          0    000010f4    00000028     
                  000010f4    00000028     tags-cc1310_pem3.oem3 (.const:ti_sysbios_knl_Swi_Object__PARAMS__C)

.const:ti_sysbios_gates_GateHwi_Module__FXNS__C 
*          0    0000111c    00000024     
                  0000111c    00000024     tags-cc1310_pem3.oem3 (.const:ti_sysbios_gates_GateHwi_Module__FXNS__C)

.const:ti_sysbios_gates_GateMutex_Module__FXNS__C 
*          0    00001140    00000024     
                  00001140    00000024     tags-cc1310_pem3.oem3 (.const:ti_sysbios_gates_GateMutex_Module__FXNS__C)

.const:ti_sysbios_heaps_HeapMem_Object__PARAMS__C 
*          0    00001164    00000024     
                  00001164    00000024     tags-cc1310_pem3.oem3 (.const:ti_sysbios_heaps_HeapMem_Object__PARAMS__C)

.const:ti_sysbios_knl_Clock_Object__PARAMS__C 
*          0    00001188    00000024     
                  00001188    00000024     tags-cc1310_pem3.oem3 (.const:ti_sysbios_knl_Clock_Object__PARAMS__C)

.const:ti_sysbios_knl_Semaphore_Object__PARAMS__C 
*          0    000011ac    00000024     
                  000011ac    00000024     tags-cc1310_pem3.oem3 (.const:ti_sysbios_knl_Semaphore_Object__PARAMS__C)

.const:ti_sysbios_family_arm_m3_Hwi_Object__DESC__C 
*          0    000011d0    00000020     
                  000011d0    00000020     tags-cc1310_pem3.oem3 (.const:ti_sysbios_family_arm_m3_Hwi_Object__DESC__C)

.const:ti_sysbios_gates_GateHwi_Object__DESC__C 
*          0    000011f0    00000020     
                  000011f0    00000020     tags-cc1310_pem3.oem3 (.const:ti_sysbios_gates_GateHwi_Object__DESC__C)

.const:ti_sysbios_gates_GateMutex_Object__DESC__C 
*          0    00001210    00000020     
                  00001210    00000020     tags-cc1310_pem3.oem3 (.const:ti_sysbios_gates_GateMutex_Object__DESC__C)

.const:ti_sysbios_hal_Hwi_Object__DESC__C 
*          0    00001230    00000020     
                  00001230    00000020     tags-cc1310_pem3.oem3 (.const:ti_sysbios_hal_Hwi_Object__DESC__C)

.const:ti_sysbios_heaps_HeapMem_Object__DESC__C 
*          0    00001250    00000020     
                  00001250    00000020     tags-cc1310_pem3.oem3 (.const:ti_sysbios_heaps_HeapMem_Object__DESC__C)

.const:ti_sysbios_knl_Clock_Object__DESC__C 
*          0    00001270    00000020     
                  00001270    00000020     tags-cc1310_pem3.oem3 (.const:ti_sysbios_knl_Clock_Object__DESC__C)

.const:ti_sysbios_knl_Mailbox_Object__DESC__C 
*          0    00001290    00000020     
                  00001290    00000020     tags-cc1310_pem3.oem3 (.const:ti_sysbios_knl_Mailbox_Object__DESC__C)

.const:ti_sysbios_knl_Queue_Object__DESC__C 
*          0    000012b0    00000020     
                  000012b0    00000020     tags-cc1310_pem3.oem3 (.const:ti_sysbios_knl_Queue_Object__DESC__C)

.const:ti_sysbios_knl_Semaphore_Object__DESC__C 
*          0    000012d0    00000020     
                  000012d0    00000020     tags-cc1310_pem3.oem3 (.const:ti_sysbios_knl_Semaphore_Object__DESC__C)

.const:ti_sysbios_knl_Swi_Object__DESC__C 
*          0    000012f0    00000020     
                  000012f0    00000020     tags-cc1310_pem3.oem3 (.const:ti_sysbios_knl_Swi_Object__DESC__C)

.const:ti_sysbios_knl_Task_Object__DESC__C 
*          0    00001310    00000020     
                  00001310    00000020     tags-cc1310_pem3.oem3 (.const:ti_sysbios_knl_Task_Object__DESC__C)

.const:ti_sysbios_gates_GateHwi_Object__PARAMS__C 
*          0    00001330    00000018     
                  00001330    00000018     tags-cc1310_pem3.oem3 (.const:ti_sysbios_gates_GateHwi_Object__PARAMS__C)

.const:ti_sysbios_gates_GateMutex_Object__PARAMS__C 
*          0    00001348    00000018     
                  00001348    00000018     tags-cc1310_pem3.oem3 (.const:ti_sysbios_gates_GateMutex_Object__PARAMS__C)

.const:ti_sysbios_knl_Queue_Object__PARAMS__C 
*          0    00001360    00000018     
                  00001360    00000018     tags-cc1310_pem3.oem3 (.const:ti_sysbios_knl_Queue_Object__PARAMS__C)

.const:ti_sysbios_knl_Idle_funcList__C 
*          0    00001378    00000008     
                  00001378    00000008     tags-cc1310_pem3.oem3 (.const:ti_sysbios_knl_Idle_funcList__C)

.const:ti_sysbios_family_arm_cc26xx_Timer_startupNeeded__C 
*          0    00001384    00000004     
                  00001384    00000004     tags-cc1310_pem3.oem3 (.const:ti_sysbios_family_arm_cc26xx_Timer_startupNeeded__C)

.const:ti_sysbios_family_arm_m3_Hwi_E_alreadyDefined__C 
*          0    00001388    00000004     
                  00001388    00000004     tags-cc1310_pem3.oem3 (.const:ti_sysbios_family_arm_m3_Hwi_E_alreadyDefined__C)

.const:ti_sysbios_family_arm_m3_Hwi_E_hwiLimitExceeded__C 
*          0    0000138c    00000004     
                  0000138c    00000004     tags-cc1310_pem3.oem3 (.const:ti_sysbios_family_arm_m3_Hwi_E_hwiLimitExceeded__C)

.const:ti_sysbios_family_arm_m3_Hwi_NUM_INTERRUPTS__C 
*          0    00001390    00000004     
                  00001390    00000004     tags-cc1310_pem3.oem3 (.const:ti_sysbios_family_arm_m3_Hwi_NUM_INTERRUPTS__C)

.const:ti_sysbios_family_arm_m3_Hwi_Object__count__C 
*          0    00001394    00000004     
                  00001394    00000004     tags-cc1310_pem3.oem3 (.const:ti_sysbios_family_arm_m3_Hwi_Object__count__C)

.const:ti_sysbios_family_arm_m3_Hwi_Object__table__C 
*          0    00001398    00000004     
                  00001398    00000004     tags-cc1310_pem3.oem3 (.const:ti_sysbios_family_arm_m3_Hwi_Object__table__C)

.const:ti_sysbios_family_arm_m3_Hwi_ccr__C 
*          0    0000139c    00000004     
                  0000139c    00000004     tags-cc1310_pem3.oem3 (.const:ti_sysbios_family_arm_m3_Hwi_ccr__C)

.const:ti_sysbios_family_arm_m3_Hwi_excHandlerFunc__C 
*          0    000013a0    00000004     
                  000013a0    00000004     tags-cc1310_pem3.oem3 (.const:ti_sysbios_family_arm_m3_Hwi_excHandlerFunc__C)

.const:ti_sysbios_family_arm_m3_Hwi_nullIsrFunc__C 
*          0    000013a4    00000004     
                  000013a4    00000004     tags-cc1310_pem3.oem3 (.const:ti_sysbios_family_arm_m3_Hwi_nullIsrFunc__C)

.const:ti_sysbios_family_arm_m3_Hwi_numSparseInterrupts__C 
*          0    000013a8    00000004     
                  000013a8    00000004     tags-cc1310_pem3.oem3 (.const:ti_sysbios_family_arm_m3_Hwi_numSparseInterrupts__C)

.const:ti_sysbios_family_arm_m3_Hwi_priGroup__C 
*          0    000013ac    00000004     
                  000013ac    00000004     tags-cc1310_pem3.oem3 (.const:ti_sysbios_family_arm_m3_Hwi_priGroup__C)

.const:ti_sysbios_family_arm_m3_TaskSupport_stackAlignment__C 
*          0    000013b0    00000004     
                  000013b0    00000004     tags-cc1310_pem3.oem3 (.const:ti_sysbios_family_arm_m3_TaskSupport_stackAlignment__C)

.const:ti_sysbios_heaps_HeapMem_E_memory__C 
*          0    000013b4    00000004     
                  000013b4    00000004     tags-cc1310_pem3.oem3 (.const:ti_sysbios_heaps_HeapMem_E_memory__C)

.const:ti_sysbios_heaps_HeapMem_Module__gateObj__C 
*          0    000013b8    00000004     
                  000013b8    00000004     tags-cc1310_pem3.oem3 (.const:ti_sysbios_heaps_HeapMem_Module__gateObj__C)

.const:ti_sysbios_heaps_HeapMem_Object__count__C 
*          0    000013bc    00000004     
                  000013bc    00000004     tags-cc1310_pem3.oem3 (.const:ti_sysbios_heaps_HeapMem_Object__count__C)

.const:ti_sysbios_heaps_HeapMem_Object__table__C 
*          0    000013c0    00000004     
                  000013c0    00000004     tags-cc1310_pem3.oem3 (.const:ti_sysbios_heaps_HeapMem_Object__table__C)

.const:ti_sysbios_heaps_HeapMem_reqAlign__C 
*          0    000013c4    00000004     
                  000013c4    00000004     tags-cc1310_pem3.oem3 (.const:ti_sysbios_heaps_HeapMem_reqAlign__C)

.const:ti_sysbios_knl_Clock_serviceMargin__C 
*          0    000013c8    00000004     
                  000013c8    00000004     tags-cc1310_pem3.oem3 (.const:ti_sysbios_knl_Clock_serviceMargin__C)

.const:ti_sysbios_knl_Mailbox_Object__count__C 
*          0    000013cc    00000004     
                  000013cc    00000004     tags-cc1310_pem3.oem3 (.const:ti_sysbios_knl_Mailbox_Object__count__C)

.const:ti_sysbios_knl_Mailbox_Object__table__C 
*          0    000013d0    00000004     
                  000013d0    00000004     tags-cc1310_pem3.oem3 (.const:ti_sysbios_knl_Mailbox_Object__table__C)

.const:ti_sysbios_knl_Mailbox_maxTypeAlign__C 
*          0    000013d4    00000004     
                  000013d4    00000004     tags-cc1310_pem3.oem3 (.const:ti_sysbios_knl_Mailbox_maxTypeAlign__C)

.const:ti_sysbios_knl_Queue_Object__count__C 
*          0    000013d8    00000004     
                  000013d8    00000004     tags-cc1310_pem3.oem3 (.const:ti_sysbios_knl_Queue_Object__count__C)

.const:ti_sysbios_knl_Queue_Object__table__C 
*          0    000013dc    00000004     
                  000013dc    00000004     tags-cc1310_pem3.oem3 (.const:ti_sysbios_knl_Queue_Object__table__C)

.const:ti_sysbios_knl_Swi_Object__count__C 
*          0    000013e0    00000004     
                  000013e0    00000004     tags-cc1310_pem3.oem3 (.const:ti_sysbios_knl_Swi_Object__count__C)

.const:ti_sysbios_knl_Swi_Object__table__C 
*          0    000013e4    00000004     
                  000013e4    00000004     tags-cc1310_pem3.oem3 (.const:ti_sysbios_knl_Swi_Object__table__C)

.const:ti_sysbios_knl_Swi_numPriorities__C 
*          0    000013e8    00000004     
                  000013e8    00000004     tags-cc1310_pem3.oem3 (.const:ti_sysbios_knl_Swi_numPriorities__C)

.const:ti_sysbios_knl_Task_Object__count__C 
*          0    000013ec    00000004     
                  000013ec    00000004     tags-cc1310_pem3.oem3 (.const:ti_sysbios_knl_Task_Object__count__C)

.const:ti_sysbios_knl_Task_Object__table__C 
*          0    000013f0    00000004     
                  000013f0    00000004     tags-cc1310_pem3.oem3 (.const:ti_sysbios_knl_Task_Object__table__C)

.const:ti_sysbios_knl_Task_allBlockedFunc__C 
*          0    000013f4    00000004     
                  000013f4    00000004     tags-cc1310_pem3.oem3 (.const:ti_sysbios_knl_Task_allBlockedFunc__C)

.const:ti_sysbios_knl_Task_defaultStackHeap__C 
*          0    000013f8    00000004     
                  000013f8    00000004     tags-cc1310_pem3.oem3 (.const:ti_sysbios_knl_Task_defaultStackHeap__C)

.const:ti_sysbios_knl_Task_defaultStackSize__C 
*          0    000013fc    00000004     
                  000013fc    00000004     tags-cc1310_pem3.oem3 (.const:ti_sysbios_knl_Task_defaultStackSize__C)

.const:ti_sysbios_knl_Task_numConstructedTasks__C 
*          0    00001400    00000004     
                  00001400    00000004     tags-cc1310_pem3.oem3 (.const:ti_sysbios_knl_Task_numConstructedTasks__C)

.const:ti_sysbios_family_arm_cc26xx_Timer_Module__id__C 
*          0    00001406    00000002     
                  00001406    00000002     tags-cc1310_pem3.oem3 (.const:ti_sysbios_family_arm_cc26xx_Timer_Module__id__C)

.const:ti_sysbios_family_arm_cc26xx_TimestampProvider_useClockTimer__C 
*          0    00001408    00000002     
                  00001408    00000002     tags-cc1310_pem3.oem3 (.const:ti_sysbios_family_arm_cc26xx_TimestampProvider_useClockTimer__C)

.const:ti_sysbios_family_arm_m3_Hwi_Module__id__C 
*          0    0000140a    00000002     
                  0000140a    00000002     tags-cc1310_pem3.oem3 (.const:ti_sysbios_family_arm_m3_Hwi_Module__id__C)

.const:ti_sysbios_gates_GateHwi_Module__id__C 
*          0    0000140c    00000002     
                  0000140c    00000002     tags-cc1310_pem3.oem3 (.const:ti_sysbios_gates_GateHwi_Module__id__C)

.const:ti_sysbios_gates_GateMutex_Module__id__C 
*          0    0000140e    00000002     
                  0000140e    00000002     tags-cc1310_pem3.oem3 (.const:ti_sysbios_gates_GateMutex_Module__id__C)

.const:ti_sysbios_heaps_HeapMem_Module__id__C 
*          0    00001410    00000002     
                  00001410    00000002     tags-cc1310_pem3.oem3 (.const:ti_sysbios_heaps_HeapMem_Module__id__C)

.const:ti_sysbios_knl_Task_initStackFlag__C 
*          0    00001412    00000002     
                  00001412    00000002     tags-cc1310_pem3.oem3 (.const:ti_sysbios_knl_Task_initStackFlag__C)

.const:ti_sysbios_knl_Clock_tickMode__C 
*          0    00001414    00000001     
                  00001414    00000001     tags-cc1310_pem3.oem3 (.const:ti_sysbios_knl_Clock_tickMode__C)

.const:xdc_runtime_Startup_firstFxns__C 
*          0    00001418    00000008     
                  00001418    00000008     tags-cc1310_pem3.oem3 (.const:xdc_runtime_Startup_firstFxns__C)

.const:xdc_runtime_Startup_lastFxns__C 
*          0    00001420    00000008     
                  00001420    00000008     tags-cc1310_pem3.oem3 (.const:xdc_runtime_Startup_lastFxns__C)

.const:xdc_runtime_Assert_E_assertFailed__C 
*          0    00001428    00000004     
                  00001428    00000004     tags-cc1310_pem3.oem3 (.const:xdc_runtime_Assert_E_assertFailed__C)

.const:xdc_runtime_Error_E_memory__C 
*          0    0000142c    00000004     
                  0000142c    00000004     tags-cc1310_pem3.oem3 (.const:xdc_runtime_Error_E_memory__C)

.const:xdc_runtime_Error_policyFxn__C 
*          0    00001430    00000004     
                  00001430    00000004     tags-cc1310_pem3.oem3 (.const:xdc_runtime_Error_policyFxn__C)

.const:xdc_runtime_IGateProvider_Interface__BASE__C 
*          0    00001434    00000004     
                  00001434    00000004     tags-cc1310_pem3.oem3 (.const:xdc_runtime_IGateProvider_Interface__BASE__C)

.const:xdc_runtime_IHeap_Interface__BASE__C 
*          0    00001438    00000004     
                  00001438    00000004     tags-cc1310_pem3.oem3 (.const:xdc_runtime_IHeap_Interface__BASE__C)

.const:xdc_runtime_IModule_Interface__BASE__C 
*          0    0000143c    00000004     
                  0000143c    00000004     tags-cc1310_pem3.oem3 (.const:xdc_runtime_IModule_Interface__BASE__C)

.const:xdc_runtime_Main_Module__diagsEnabled__C 
*          0    00001440    00000004     
                  00001440    00000004     tags-cc1310_pem3.oem3 (.const:xdc_runtime_Main_Module__diagsEnabled__C)

.const:xdc_runtime_Main_Module__diagsIncluded__C 
*          0    00001444    00000004     
                  00001444    00000004     tags-cc1310_pem3.oem3 (.const:xdc_runtime_Main_Module__diagsIncluded__C)

.const:xdc_runtime_Main_Module__diagsMask__C 
*          0    00001448    00000004     
                  00001448    00000004     tags-cc1310_pem3.oem3 (.const:xdc_runtime_Main_Module__diagsMask__C)

.const:xdc_runtime_Memory_defaultHeapInstance__C 
*          0    0000144c    00000004     
                  0000144c    00000004     tags-cc1310_pem3.oem3 (.const:xdc_runtime_Memory_defaultHeapInstance__C)

.const:xdc_runtime_Startup_execImpl__C 
*          0    00001450    00000004     
                  00001450    00000004     tags-cc1310_pem3.oem3 (.const:xdc_runtime_Startup_execImpl__C)

.const:xdc_runtime_Startup_maxPasses__C 
*          0    00001454    00000004     
                  00001454    00000004     tags-cc1310_pem3.oem3 (.const:xdc_runtime_Startup_maxPasses__C)

.const:xdc_runtime_Startup_sfxnRts__C 
*          0    00001458    00000004     
                  00001458    00000004     tags-cc1310_pem3.oem3 (.const:xdc_runtime_Startup_sfxnRts__C)

.const:xdc_runtime_Startup_sfxnTab__C 
*          0    0000145c    00000004     
                  0000145c    00000004     tags-cc1310_pem3.oem3 (.const:xdc_runtime_Startup_sfxnTab__C)

.const:xdc_runtime_Startup_startModsFxn__C 
*          0    00001460    00000004     
                  00001460    00000004     tags-cc1310_pem3.oem3 (.const:xdc_runtime_Startup_startModsFxn__C)

.const:xdc_runtime_SysCallback_abortFxn__C 
*          0    00001464    00000004     
                  00001464    00000004     tags-cc1310_pem3.oem3 (.const:xdc_runtime_SysCallback_abortFxn__C)

.const:xdc_runtime_SysCallback_exitFxn__C 
*          0    00001468    00000004     
                  00001468    00000004     tags-cc1310_pem3.oem3 (.const:xdc_runtime_SysCallback_exitFxn__C)

.const:xdc_runtime_System_abortFxn__C 
*          0    0000146c    00000004     
                  0000146c    00000004     tags-cc1310_pem3.oem3 (.const:xdc_runtime_System_abortFxn__C)

.const:xdc_runtime_System_exitFxn__C 
*          0    00001470    00000004     
                  00001470    00000004     tags-cc1310_pem3.oem3 (.const:xdc_runtime_System_exitFxn__C)

.const:xdc_runtime_System_maxAtexitHandlers__C 
*          0    00001474    00000004     
                  00001474    00000004     tags-cc1310_pem3.oem3 (.const:xdc_runtime_System_maxAtexitHandlers__C)

.const:xdc_runtime_Text_charTab__C 
*          0    00001478    00000004     
                  00001478    00000004     tags-cc1310_pem3.oem3 (.const:xdc_runtime_Text_charTab__C)

.const:xdc_runtime_Text_nameEmpty__C 
*          0    0000147c    00000004     
                  0000147c    00000004     tags-cc1310_pem3.oem3 (.const:xdc_runtime_Text_nameEmpty__C)

.const:xdc_runtime_Text_nameStatic__C 
*          0    00001480    00000004     
                  00001480    00000004     tags-cc1310_pem3.oem3 (.const:xdc_runtime_Text_nameStatic__C)

.const:xdc_runtime_Text_nameUnknown__C 
*          0    00001484    00000004     
                  00001484    00000004     tags-cc1310_pem3.oem3 (.const:xdc_runtime_Text_nameUnknown__C)

.const:xdc_runtime_Main_Module__id__C 
*          0    00001488    00000002     
                  00001488    00000002     tags-cc1310_pem3.oem3 (.const:xdc_runtime_Main_Module__id__C)

.const:xdc_runtime_Memory_Module__id__C 
*          0    0000148a    00000002     
                  0000148a    00000002     tags-cc1310_pem3.oem3 (.const:xdc_runtime_Memory_Module__id__C)

.const:xdc_runtime_Text_charCnt__C 
*          0    0000148c    00000002     
                  0000148c    00000002     tags-cc1310_pem3.oem3 (.const:xdc_runtime_Text_charCnt__C)

.const:xdc_runtime_Text_isLoaded__C 
*          0    0000148e    00000002     
                  0000148e    00000002     tags-cc1310_pem3.oem3 (.const:xdc_runtime_Text_isLoaded__C)

.const:xdc_runtime_Error_policy__C 
*          0    00001490    00000001     
                  00001490    00000001     tags-cc1310_pem3.oem3 (.const:xdc_runtime_Error_policy__C)

.const:ti_sysbios_rom_ROM_AONRTCChannelEnable 
*          0    00001494    00000004     
                  00001494    00000004     tags-cc1310_pem3.oem3 (.const:ti_sysbios_rom_ROM_AONRTCChannelEnable)

.const:ti_sysbios_rom_ROM_AONRTCCompareValueSet 
*          0    00001498    00000004     
                  00001498    00000004     tags-cc1310_pem3.oem3 (.const:ti_sysbios_rom_ROM_AONRTCCompareValueSet)

.const:ti_sysbios_rom_ROM_AONRTCCurrentCompareValueGet 
*          0    0000149c    00000004     
                  0000149c    00000004     tags-cc1310_pem3.oem3 (.const:ti_sysbios_rom_ROM_AONRTCCurrentCompareValueGet)

.const:ti_sysbios_rom_ROM_AONRTCEventClear 
*          0    000014a0    00000004     
                  000014a0    00000004     tags-cc1310_pem3.oem3 (.const:ti_sysbios_rom_ROM_AONRTCEventClear)

.const:ti_sysbios_rom_ROM_ti_sysbios_family_arm_cc26xx_Timer_getCount64__E 
*          0    000014a4    00000004     
                  000014a4    00000004     tags-cc1310_pem3.oem3 (.const:ti_sysbios_rom_ROM_ti_sysbios_family_arm_cc26xx_Timer_getCount64__E)

.const:ti_sysbios_rom_ROM_ti_sysbios_family_arm_cc26xx_Timer_getCurrentTick__E 
*          0    000014a8    00000004     
                  000014a8    00000004     tags-cc1310_pem3.oem3 (.const:ti_sysbios_rom_ROM_ti_sysbios_family_arm_cc26xx_Timer_getCurrentTick__E)

.const:ti_sysbios_rom_ROM_ti_sysbios_family_arm_cc26xx_Timer_getMaxTicks__E 
*          0    000014ac    00000004     
                  000014ac    00000004     tags-cc1310_pem3.oem3 (.const:ti_sysbios_rom_ROM_ti_sysbios_family_arm_cc26xx_Timer_getMaxTicks__E)

.const:ti_sysbios_rom_ROM_ti_sysbios_family_arm_cc26xx_Timer_initDevice__I 
*          0    000014b0    00000004     
                  000014b0    00000004     tags-cc1310_pem3.oem3 (.const:ti_sysbios_rom_ROM_ti_sysbios_family_arm_cc26xx_Timer_initDevice__I)

.const:ti_sysbios_rom_ROM_ti_sysbios_family_arm_cc26xx_Timer_setNextTick__E 
*          0    000014b4    00000004     
                  000014b4    00000004     tags-cc1310_pem3.oem3 (.const:ti_sysbios_rom_ROM_ti_sysbios_family_arm_cc26xx_Timer_setNextTick__E)

.const:ti_sysbios_rom_ROM_ti_sysbios_family_arm_cc26xx_Timer_setThreshold__I 
*          0    000014b8    00000004     
                  000014b8    00000004     tags-cc1310_pem3.oem3 (.const:ti_sysbios_rom_ROM_ti_sysbios_family_arm_cc26xx_Timer_setThreshold__I)

.const:ti_sysbios_rom_ROM_ti_sysbios_family_arm_cc26xx_Timer_start__E 
*          0    000014bc    00000004     
                  000014bc    00000004     tags-cc1310_pem3.oem3 (.const:ti_sysbios_rom_ROM_ti_sysbios_family_arm_cc26xx_Timer_start__E)

.const:ti_sysbios_rom_ROM_ti_sysbios_family_arm_cc26xx_TimestampProvider_get32__E 
*          0    000014c0    00000004     
                  000014c0    00000004     tags-cc1310_pem3.oem3 (.const:ti_sysbios_rom_ROM_ti_sysbios_family_arm_cc26xx_TimestampProvider_get32__E)

.const:ti_sysbios_rom_ROM_xdc_runtime_Startup_getState__I 
*          0    000014c4    00000004     
                  000014c4    00000004     tags-cc1310_pem3.oem3 (.const:ti_sysbios_rom_ROM_xdc_runtime_Startup_getState__I)

.const:ti_sysbios_rom_ROM_xdc_runtime_System_SupportProxy_abort__E 
*          0    000014c8    00000004     
                  000014c8    00000004     tags-cc1310_pem3.oem3 (.const:ti_sysbios_rom_ROM_xdc_runtime_System_SupportProxy_abort__E)

.const:ti_sysbios_rom_ROM_xdc_runtime_System_SupportProxy_exit__E 
*          0    000014cc    00000004     
                  000014cc    00000004     tags-cc1310_pem3.oem3 (.const:ti_sysbios_rom_ROM_xdc_runtime_System_SupportProxy_exit__E)

.const:ti_sysbios_gates_GateMutex_Instance_State_sem__O 
*          0    000014d0    00000004     
                  000014d0    00000004     tags-cc1310_pem3.oem3 (.const:ti_sysbios_gates_GateMutex_Instance_State_sem__O)

.const:ti_sysbios_knl_Clock_Module_State_clockQ__O 
*          0    000014d4    00000004     
                  000014d4    00000004     tags-cc1310_pem3.oem3 (.const:ti_sysbios_knl_Clock_Module_State_clockQ__O)

.const:ti_sysbios_knl_Mailbox_Instance_State_dataQue__O 
*          0    000014d8    00000004     
                  000014d8    00000004     tags-cc1310_pem3.oem3 (.const:ti_sysbios_knl_Mailbox_Instance_State_dataQue__O)

.const:ti_sysbios_knl_Mailbox_Instance_State_dataSem__O 
*          0    000014dc    00000004     
                  000014dc    00000004     tags-cc1310_pem3.oem3 (.const:ti_sysbios_knl_Mailbox_Instance_State_dataSem__O)

.const:ti_sysbios_knl_Mailbox_Instance_State_freeQue__O 
*          0    000014e0    00000004     
                  000014e0    00000004     tags-cc1310_pem3.oem3 (.const:ti_sysbios_knl_Mailbox_Instance_State_freeQue__O)

.const:ti_sysbios_knl_Mailbox_Instance_State_freeSem__O 
*          0    000014e4    00000004     
                  000014e4    00000004     tags-cc1310_pem3.oem3 (.const:ti_sysbios_knl_Mailbox_Instance_State_freeSem__O)

.const:ti_sysbios_knl_Semaphore_Instance_State_pendQ__O 
*          0    000014e8    00000004     
                  000014e8    00000004     tags-cc1310_pem3.oem3 (.const:ti_sysbios_knl_Semaphore_Instance_State_pendQ__O)

.const:ti_sysbios_knl_Task_Module_State_inactiveQ__O 
*          0    000014ec    00000004     
                  000014ec    00000004     tags-cc1310_pem3.oem3 (.const:ti_sysbios_knl_Task_Module_State_inactiveQ__O)

.ccfg      0    0001ffa8    00000058     
                  0001ffa8    00000058     ccfg.obj (.ccfg:retain)

.vecs      0    20000000    000000c8     UNINITIALIZED
                  20000000    000000c8     tags-cc1310_pem3.oem3 (.vecs)

.data:ti_sysbios_knl_Task_Module__state__V 
*          0    20000100    00000044     UNINITIALIZED
                  20000100    00000044     tags-cc1310_pem3.oem3 (.data:ti_sysbios_knl_Task_Module__state__V)

.data:ti_sysbios_family_arm_m3_Hwi_Module__state__V 
*          0    20000144    00000034     UNINITIALIZED
                  20000144    00000034     tags-cc1310_pem3.oem3 (.data:ti_sysbios_family_arm_m3_Hwi_Module__state__V)

.data:ti_sysbios_knl_Clock_Module__state__V 
*          0    20000178    0000002c     UNINITIALIZED
                  20000178    0000002c     tags-cc1310_pem3.oem3 (.data:ti_sysbios_knl_Clock_Module__state__V)

.data:ti_sysbios_BIOS_Module__state__V 
*          0    200001a4    00000024     UNINITIALIZED
                  200001a4    00000024     tags-cc1310_pem3.oem3 (.data:ti_sysbios_BIOS_Module__state__V)

.data:ti_sysbios_knl_Swi_Module__state__V 
*          0    200001c8    0000001c     UNINITIALIZED
                  200001c8    0000001c     tags-cc1310_pem3.oem3 (.data:ti_sysbios_knl_Swi_Module__state__V)

.data:ti_sysbios_family_arm_cc26xx_Timer_Module__state__V 
*          0    200001e4    00000008     UNINITIALIZED
                  200001e4    00000008     tags-cc1310_pem3.oem3 (.data:ti_sysbios_family_arm_cc26xx_Timer_Module__state__V)

.data:ti_sysbios_family_arm_cc26xx_TimestampProvider_Module__state__V 
*          0    200001ec    00000004     UNINITIALIZED
                  200001ec    00000004     tags-cc1310_pem3.oem3 (.data:ti_sysbios_family_arm_cc26xx_TimestampProvider_Module__state__V)

.data:xdc_runtime_Startup_Module__state__V 
*          0    200001f0    00000008     UNINITIALIZED
                  200001f0    00000008     tags-cc1310_pem3.oem3 (.data:xdc_runtime_Startup_Module__state__V)

.data:xdc_runtime_System_Module__state__V 
*          0    200001f8    00000008     UNINITIALIZED
                  200001f8    00000008     tags-cc1310_pem3.oem3 (.data:xdc_runtime_System_Module__state__V)

.data:xdc_runtime_Memory_Module__state__V 
*          0    20000200    00000004     UNINITIALIZED
                  20000200    00000004     tags-cc1310_pem3.oem3 (.data:xdc_runtime_Memory_Module__state__V)

.TI.bound:dmaSpi0RxControlTableEntry 
*          0    20000430    00000010     UNINITIALIZED
                  20000430    00000010     drivers_cc13xxware.aem3 : SPICC26XXDMA.oem3 (.TI.bound:dmaSpi0RxControlTableEntry)

.TI.bound:dmaSpi0TxControlTableEntry 
*          0    20000440    00000010     UNINITIALIZED
                  20000440    00000010     drivers_cc13xxware.aem3 : SPICC26XXDMA.oem3 (.TI.bound:dmaSpi0TxControlTableEntry)

.TI.bound:dmaSpi1RxControlTableEntry 
*          0    20000500    00000010     UNINITIALIZED
                  20000500    00000010     drivers_cc13xxware.aem3 : SPICC26XXDMA.oem3 (.TI.bound:dmaSpi1RxControlTableEntry)

.TI.bound:dmaSpi1TxControlTableEntry 
*          0    20000510    00000010     UNINITIALIZED
                  20000510    00000010     drivers_cc13xxware.aem3 : SPICC26XXDMA.oem3 (.TI.bound:dmaSpi1TxControlTableEntry)

.bss       0    20000520    00002ca8     UNINITIALIZED
                  20000520    00000c00     buffers.obj (.bss:buffers)
                  20001120    00000800     tags-cc1310_pem3.oem3 (.bss:ti_sysbios_heaps_HeapMem_Instance_State_0_buf__A)
                  20001920    00000400     i2c_sensors.obj (.bss:testTaskStack)
                  20001d20    00000200     leds.obj (.bss:grnTaskStack)
                  20001f20    00000200     leds.obj (.bss:redTaskStack)
                  20002120    00000200     tags-cc1310_pem3.oem3 (.bss:taskStackSection)
                  20002320    00000200     uart.obj (.bss:uartRxTaskStack)
                  20002520    00000200     uart.obj (.bss:uartTxTaskStack)
                  20002720    000001b8     CC1310_LAUNCHXL.obj (.bss:spiCC26XXDMAObjects)
                  200028d8    00000120     rtsv7M3_T_le_eabi.lib : trgmsg.obj (.bss:__CIOBUF_)
                  200029f8    00000114     CC1310_LAUNCHXL.obj (.bss:uartCC26XXObjects)
                  20002b0c    000000e0     CC1310_LAUNCHXL.obj (.bss:i2cCC26xxObjects)
                  20002bec    000000c8     tags-cc1310_pem3.oem3 (.bss:ti_sysbios_family_arm_m3_Hwi_dispatchTable)
                  20002cb4    000000a0     rtsv7M3_T_le_eabi.lib : defs.obj (.bss:__TI_tmpnams)
                  20002d54    0000007c     drivers_cc13xxware.aem3 : PINCC26XX.oem3 (.bss:PIN_HandleTable)
                  20002dd0    00000050     leds.obj (.bss:ledsGrnTask)
                  20002e20    00000050     leds.obj (.bss:ledsRedTask)
                  20002e70    00000050     i2c_sensors.obj (.bss:testTask)
                  20002ec0    00000050     uart.obj (.bss:uartRxTask)
                  20002f10    00000050     uart.obj (.bss:uartTxTask)
                  20002f60    0000003c     leds.obj (.bss:ledsTaskParams)
                  20002f9c    0000003c     i2c_sensors.obj (.bss:testTaskParams)
                  20002fd8    0000003c     uart.obj (.bss:uartRxTaskParams)
                  20003014    0000003c     uart.obj (.bss:uartTxTaskParams)
                  20003050    00000034     drivers_cc13xxware.aem3 : PINCC26XX.oem3 (.bss:PinSwi)
                  20003084    00000020     (.common:PinGpioConfigTable)
                  200030a4    00000020     (.common:rxDataEntryBuffer)
                  200030c4    00000020     (.common:udmaObjects)
                  200030e4    0000001c     (.common:PinHwi)
                  20003100    0000001c     (.common:PinSem)
                  2000311c    0000001c     (.common:packetReceivedSemaphoreStruct)
                  20003138    00000014     driverlib.lib : osc.obj (.bss:oscHfGlobals)
                  2000314c    0000000c     (.common:ledPinState)
                  20003158    0000000c     (.common:ledsSemaphores)
                  20003164    0000000c     (.common:pinState)
                  20003170    00000008                   : sys_ctrl.obj (.bss:powerQualGlobals)
                  20003178    00000008     (.common:dataQueue)
                  20003180    00000008     (.common:parmbuf)
                  20003188    00000004     (.common:PIN_NumPins)
                  2000318c    00000004     (.common:freeMailbox)
                  20003190    00000004     (.common:i2cHandle)
                  20003194    00000004     (.common:incomingBuffer)
                  20003198    00000004     (.common:ledPinHandle)
                  2000319c    00000004     (.common:pPinGpio)
                  200031a0    00000004     (.common:packetReceivedSemaphore)
                  200031a4    00000004     (.common:readEntry)
                  200031a8    00000004     (.common:readyBuffer)
                  200031ac    00000004     (.common:spiHandle)
                  200031b0    00000004     (.common:uartAccessSemaphore)
                  200031b4    00000004     (.common:uartRxMailbox)
                  200031b8    00000004     (.common:uartRxSemaphore)
                  200031bc    00000004     (.common:uartTxMailbox)
                  200031c0    00000004     (.common:uartTxSemaphore)
                  200031c4    00000001     (.common:driverlib_release_0_46593)
                  200031c5    00000001     (.common:txbyte)
                  200031c6    00000001     (.common:uartRxPowerConstraint)
                  200031c7    00000001     (.common:uartTxPowerConstraint)

.TI.noinit 
*          0    20000520    00000000     UNINITIALIZED

.data      0    200031c8    000009dc     UNINITIALIZED
                  200031c8    00000110     drivers_cc13xxware.aem3 : PowerCC26XX.oem3 (.data:PowerCC26XX_module)
                  200032d8    000000f0     rtsv7M3_T_le_eabi.lib : defs.obj (.data:_ftable)
                  200033c8    000000e0     tags-cc1310_pem3.oem3 (.data)
                  200034a8    000000d0     rtsv7M3_T_le_eabi.lib : lowlev.obj (.data)
                  20003578    000000b0                           : signal.obj (.data:sigtable)
                  20003628    000000a0     radio_setup.obj (.data:radio_cmd_prop_div_setup)
                  200036c8    00000090     radio_setup.obj (.data:radio_cmd_prop_rx)
                  20003758    00000080     radio_setup.obj (.data:radio_cmd_prop_tx_adv)
                  200037d8    00000080     rtsv7M3_T_le_eabi.lib : xvalues.obj (.data)
                  20003858    00000060     radio_setup.obj (.data:radio_cmd_fs)
                  200038b8    00000060     radio_setup.obj (.data:radio_cmd_prop_tx)
                  20003918    00000060     tags-cc1310_pem3.oem3 (.data:ti_sysbios_knl_Task_Module_State_0_readyQ__A)
                  20003978    00000058     radio_setup.obj (.data:lrmOverrides)
                  200039d0    0000004c     tags-cc1310_pem3.oem3 (.data:ti_sysbios_knl_Task_Object__table__V)
                  20003a1c    00000004     drivers_cc13xxware.aem3 : I2C.oem3 (.data)
                  20003a20    00000048     tags-cc1310_pem3.oem3 (.data:ti_sysbios_family_arm_cc26xx_Timer_Object__table__V)
                  20003a68    00000040     radio_setup.obj (.data:radio_mode)
                  20003aa8    00000038     tags-cc1310_pem3.oem3 (.data:ti_sysbios_gates_GateMutex_Object__table__V)
                  20003ae0    00000030     tags-cc1310_pem3.oem3 (.data:ti_sysbios_knl_Swi_Module_State_0_readyQ__A)
                  20003b10    00000030     tags-cc1310_pem3.oem3 (.data:ti_sysbios_knl_Swi_Object__table__V)
                  20003b40    00000010     rtsv7M3_T_le_eabi.lib : defs.obj (.data)
                  20003b50    0000000c     i2c_sensors.obj (.data)
                  20003b5c    0000000c     tags-cc1310_pem3.oem3 (.data:ti_sysbios_family_arm_m3_Timer_Module__state__V)
                  20003b68    00000009     leds.obj (.data)
                  20003b71    00000003     --HOLE--
                  20003b74    00000008     rtsv7M3_T_le_eabi.lib : _lock.obj (.data)
                  20003b7c    00000008                           : exit.obj (.data)
                  20003b84    00000008                           : feraiseexcept.obj (.data)
                  20003b8c    00000004     drivers_cc13xxware.aem3 : SPI.oem3 (.data)
                  20003b90    00000004                             : UART.oem3 (.data)
                  20003b94    00000004     rtsv7M3_T_le_eabi.lib : errno.obj (.data)
                  20003b98    00000004                           : fopen.obj (.data)
                  20003b9c    00000004                           : stkdepth_vars.obj (.data)
                  20003ba0    00000004     uart.obj (.data)

.TI.persistent 
*          0    200031c8    00000000     UNINITIALIZED

.stack     0    20004d00    00000300     UNINITIALIZED
                  20004d00    00000300     --HOLE--

.bootVecs 
*          0    00000000    00000008     DSECT
                  00000000    00000008     boot.aem3 : boot.oem3 (.bootVecs)

xdc.meta   0    00000000    000000eb     COPY SECTION
                  00000000    000000eb     tags-cc1310_pem3.oem3 (xdc.meta)

xdc.noload 
*          0    00000000    00000000     COPY SECTION


LINKER GENERATED COPY TABLES

__TI_cinit_table @ 00009b28 records: 17, size/record: 8, table size: 136
	.data: load addr=00009658, load size=0000037e bytes, run addr=200031c8, run size=000009dc bytes, compression=rle
	.data:ti_sysbios_family_arm_m3_Hwi_Module__state__V: load addr=000099d8, load size=0000002c bytes, run addr=20000144, run size=00000034 bytes, compression=rle
	.data:ti_sysbios_knl_Task_Module__state__V: load addr=00009a08, load size=0000002c bytes, run addr=20000100, run size=00000044 bytes, compression=rle
	.data:ti_sysbios_knl_Clock_Module__state__V: load addr=00009a38, load size=00000021 bytes, run addr=20000178, run size=0000002c bytes, compression=rle
	.data:ti_sysbios_BIOS_Module__state__V: load addr=00009a60, load size=0000001f bytes, run addr=200001a4, run size=00000024 bytes, compression=rle
	.data:ti_sysbios_knl_Swi_Module__state__V: load addr=00009a80, load size=00000011 bytes, run addr=200001c8, run size=0000001c bytes, compression=rle
	.data:ti_sysbios_family_arm_cc26xx_Timer_Module__state__V: load addr=00009a98, load size=0000000d bytes, run addr=200001e4, run size=00000008 bytes, compression=rle
	.data:xdc_runtime_Memory_Module__state__V: load addr=00009ab8, load size=0000000a bytes, run addr=20000200, run size=00000004 bytes, compression=rle
	.data:ti_sysbios_family_arm_cc26xx_TimestampProvider_Module__state__V: load addr=00009ac8, load size=00000009 bytes, run addr=200001ec, run size=00000004 bytes, compression=rle
	.data:xdc_runtime_Startup_Module__state__V: load addr=00009ad8, load size=00000009 bytes, run addr=200001f0, run size=00000008 bytes, compression=rle
	.data:xdc_runtime_System_Module__state__V: load addr=00009ae8, load size=00000009 bytes, run addr=200001f8, run size=00000008 bytes, compression=rle
	.TI.bound:dmaSpi0RxControlTableEntry: load addr=00009af8, load size=00000008 bytes, run addr=20000430, run size=00000010 bytes, compression=zero_init
	.TI.bound:dmaSpi0TxControlTableEntry: load addr=00009b00, load size=00000008 bytes, run addr=20000440, run size=00000010 bytes, compression=zero_init
	.TI.bound:dmaSpi1RxControlTableEntry: load addr=00009b08, load size=00000008 bytes, run addr=20000500, run size=00000010 bytes, compression=zero_init
	.TI.bound:dmaSpi1TxControlTableEntry: load addr=00009b10, load size=00000008 bytes, run addr=20000510, run size=00000010 bytes, compression=zero_init
	.bss: load addr=00009b18, load size=00000008 bytes, run addr=20000520, run size=00002ca8 bytes, compression=zero_init
	.vecs: load addr=00009b20, load size=00000008 bytes, run addr=20000000, run size=000000c8 bytes, compression=zero_init


LINKER GENERATED HANDLER TABLE

__TI_handler_table @ 00009aa8 records: 3, size/record: 4, table size: 12
	index: 0, handler: __TI_decompress_rle24
	index: 1, handler: __TI_decompress_none
	index: 2, handler: __TI_zero_init


FAR CALL TRAMPOLINES

callee name               trampoline name
   callee addr  tramp addr   call addr  call info
--------------  -----------  ---------  ----------------
xdc_runtime_Startup_startMods__I  $Tramp$TT$L$PI$$xdc_runtime_Startup_startMods__I
   1001c309     000094a4     000092a4   tags-cc1310_pem3.oem3 (.text:xdc_runtime_Startup_exec__I)
ti_sysbios_knl_Clock_logTick__E  $Tramp$TT$L$PI$$ti_sysbios_knl_Clock_logTick__E
   1001be63     000094ac     00009276   tags-cc1310_pem3.oem3 (.text:ti_sysbios_knl_Clock_doTick__I)
ti_sysbios_BIOS_RtsGateProxy_leave__E  $Tramp$TT$L$PI$$ti_sysbios_BIOS_RtsGateProxy_leave__E
   1001c249     000094b4     0000917a   tags-cc1310_pem3.oem3 (.text:ti_sysbios_BIOS_rtsUnlock__I)
xdc_runtime_Memory_free__E  $Tramp$TT$L$PI$$xdc_runtime_Memory_free__E
   1001c7fd     000094bc     0000911e   tags-cc1310_pem3.oem3 (.text:free)
ti_sysbios_BIOS_RtsGateProxy_enter__E  $Tramp$TT$L$PI$$ti_sysbios_BIOS_RtsGateProxy_enter__E
   1001c245     000094c4     00008df6   tags-cc1310_pem3.oem3 (.text:ti_sysbios_BIOS_rtsLock__I)
xdc_runtime_Memory_alloc__E  $Tramp$TT$L$PI$$xdc_runtime_Memory_alloc__E
   1001c485     000094cc     000089da   tags-cc1310_pem3.oem3 (.text:malloc)
xdc_runtime_Error_init__E  $Tramp$TT$L$PI$$xdc_runtime_Error_init__E
   1001c83d     000094d4     000089ca   tags-cc1310_pem3.oem3 (.text:malloc)
ti_sysbios_BIOS_setThreadType__E  $Tramp$TT$L$PI$$ti_sysbios_BIOS_setThreadType__E
   1001c041     000094dc     0000893c   tags-cc1310_pem3.oem3 (.text:ti_sysbios_BIOS_atExitFunc__I)
                             00009218   tags-cc1310_pem3.oem3 (.text:ti_sysbios_BIOS_exitFunc__I)
ti_sysbios_knl_Task_startup__E  $Tramp$TT$L$PI$$ti_sysbios_knl_Task_startup__E
   1001c305     000094e4     0000873c   tags-cc1310_pem3.oem3 (.text:ti_sysbios_BIOS_startFunc__I)
ti_sysbios_knl_Swi_startup__E  $Tramp$TT$L$PI$$ti_sysbios_knl_Swi_startup__E
   1001c239     000094ec     00008738   tags-cc1310_pem3.oem3 (.text:ti_sysbios_BIOS_startFunc__I)
ti_sysbios_hal_Hwi_HwiProxy_startup__E  $Tramp$TT$L$PI$$ti_sysbios_hal_Hwi_HwiProxy_startup__E
   1001c289     000094f4     00008734   tags-cc1310_pem3.oem3 (.text:ti_sysbios_BIOS_startFunc__I)
ti_sysbios_family_arm_cc26xx_Timer_startup__E  $Tramp$TT$L$PI$$ti_sysbios_family_arm_cc26xx_Timer_startup__E
   1001b791     000094fc     00008730   tags-cc1310_pem3.oem3 (.text:ti_sysbios_BIOS_startFunc__I)
xdc_runtime_System_atexit__E  $Tramp$TT$L$PI$$xdc_runtime_System_atexit__E
   1001c67d     00009504     00008724   tags-cc1310_pem3.oem3 (.text:ti_sysbios_BIOS_startFunc__I)
xdc_runtime_System_exit__E  $Tramp$TT$L$PI$$xdc_runtime_System_exit__E
   1001c7cd     0000950c     000081b4   boot.aem3 : boot.oem3 (.text)
                             0000921e   tags-cc1310_pem3.oem3 (.text:ti_sysbios_BIOS_exitFunc__I)
xdc_runtime_Error_raiseX__E  $Tramp$TT$L$PI$$xdc_runtime_Error_raiseX__E
   1001c765     00009514     00008128   rom_sysbios.aem3 : rom_sysbios.obj (.text:ti_sysbios_family_arm_m3_Timer_setPeriod__E)
ti_sysbios_knl_Clock_destruct  $Tramp$TT$L$PI$$ti_sysbios_knl_Clock_destruct
   1001c2b5     0000951c     00006fb4   drivers_cc13xxware.aem3 : UARTCC26XX.oem3 (.text:UARTCC26XX_close)
ti_sysbios_knl_Semaphore_destruct  $Tramp$TT$L$PI$$ti_sysbios_knl_Semaphore_destruct
   1001c2dd     00009524     00006fa0   drivers_cc13xxware.aem3 : UARTCC26XX.oem3 (.text:UARTCC26XX_close)
                             00006fac                           : UARTCC26XX.oem3 (.text:UARTCC26XX_close)
                             00007604                           : I2CCC26XX.oem3 (.text:I2CCC26XX_close)
                             00007610                           : I2CCC26XX.oem3 (.text:I2CCC26XX_close)
                             00007b52                           : SPICC26XXDMA.oem3 (.text:SPICC26XXDMA_close)
ti_sysbios_knl_Swi_destruct  $Tramp$TT$L$PI$$ti_sysbios_knl_Swi_destruct
   1001c2e5     0000952c     00006f94   drivers_cc13xxware.aem3 : UARTCC26XX.oem3 (.text:UARTCC26XX_close)
                             000075fc                           : I2CCC26XX.oem3 (.text:I2CCC26XX_close)
                             00007b40                           : SPICC26XXDMA.oem3 (.text:SPICC26XXDMA_close)
ti_sysbios_family_arm_m3_Hwi_destruct  $Tramp$TT$L$PI$$ti_sysbios_family_arm_m3_Hwi_destruct
   1001c25d     00009534     00006f8c   drivers_cc13xxware.aem3 : UARTCC26XX.oem3 (.text:UARTCC26XX_close)
                             000075f4                           : I2CCC26XX.oem3 (.text:I2CCC26XX_close)
                             00007b38                           : SPICC26XXDMA.oem3 (.text:SPICC26XXDMA_close)
                             00008662                           : UDMACC26XX.oem3 (.text:UDMACC26XX_close)
ti_sysbios_BIOS_start__E  $Tramp$TT$L$PI$$ti_sysbios_BIOS_start__E
   1001c051     0000953c     00006e2c   main.obj (.text:main)
ti_sysbios_knl_Clock_scheduleNextTick__E  $Tramp$TT$L$PI$$ti_sysbios_knl_Clock_scheduleNextTick__E
   1001beb9     00009544     0000661a   rom_sysbios.aem3 : rom_sysbios.obj (.text:ti_sysbios_knl_Clock_workFuncDynamic__E)
ti_sysbios_knl_Clock_walkQueueDynamic__E  $Tramp$TT$L$PI$$ti_sysbios_knl_Clock_walkQueueDynamic__E
   1001a809     0000954c     000065e2   rom_sysbios.aem3 : rom_sysbios.obj (.text:ti_sysbios_knl_Clock_workFuncDynamic__E)
                             000065fe                    : rom_sysbios.obj (.text:ti_sysbios_knl_Clock_workFuncDynamic__E)
ti_sysbios_knl_Clock_TimerProxy_getCurrentTick__E  $Tramp$TT$L$PI$$ti_sysbios_knl_Clock_TimerProxy_getCurrentTick__E
   1001c091     00009554     000065b0   rom_sysbios.aem3 : rom_sysbios.obj (.text:ti_sysbios_knl_Clock_workFuncDynamic__E)
                             00008b0e                    : rom_sysbios.obj (.text:ti_sysbios_knl_Clock_getTicksUntilInterrupt__E)
ti_sysbios_knl_Semaphore_post__E  $Tramp$TT$L$PI$$ti_sysbios_knl_Semaphore_post__E
   1001ac41     0000955c     00005ba4   drivers_cc13xxware.aem3 : I2CCC26XX.oem3 (.text:I2CCC26XX_transfer)
                             000066ae                           : PINCC26XX.oem3 (.text:PIN_open)
                             0000733c                           : PINCC26XX.oem3 (.text:PIN_add)
                             00008428   uart.obj (.text:uartLocalRead)
                             00008464   uart.obj (.text:uartLocalWrite)
                             000093c8   uart.obj (.text:uartRxCallback)
                             000093d4   uart.obj (.text:uartTxCallback)
                             00009440   drivers_cc13xxware.aem3 : I2CCC26XX.oem3 (.text:I2CCC26XX_blockingCallback)
                             00009448                           : SPICC26XXDMA.oem3 (.text:SPICC26XXDMA_transferCallback)
                             00009450                           : UARTCC26XX.oem3 (.text:readSemCallback)
                             00009458                           : UARTCC26XX.oem3 (.text:writeSemCallback)
ti_sysbios_family_arm_m3_Hwi_enableInterrupt__E  $Tramp$TT$L$PI$$ti_sysbios_family_arm_m3_Hwi_enableInterrupt__E
   1001b295     00009564     00005b60   drivers_cc13xxware.aem3 : I2CCC26XX.oem3 (.text:I2CCC26XX_transfer)
                             0000826e   rom_sysbios.aem3 : rom_sysbios.obj (.text:ti_sysbios_family_arm_m3_Timer_start__E)
ti_sysbios_family_arm_m3_Hwi_disableInterrupt__E  $Tramp$TT$L$PI$$ti_sysbios_family_arm_m3_Hwi_disableInterrupt__E
   1001b251     0000956c     00005b4e   drivers_cc13xxware.aem3 : I2CCC26XX.oem3 (.text:I2CCC26XX_transfer)
                             00008766   rom_sysbios.aem3 : rom_sysbios.obj (.text:ti_sysbios_family_arm_m3_Timer_initDevice__I)
                             00008f60                    : rom_sysbios.obj (.text:ti_sysbios_family_arm_m3_Timer_stop__E)
ti_sysbios_BIOS_getCpuFreq__E  $Tramp$TT$L$PI$$ti_sysbios_BIOS_getCpuFreq__E
   1001bff5     00009574     000058e8   drivers_cc13xxware.aem3 : UARTCC26XX.oem3 (.text:UARTCC26XX_initHw)
                             000078aa                           : SPICC26XXDMA.oem3 (.text:SPICC26XXDMA_initHw)
                             00007f50                           : I2CCC26XX.oem3 (.text:I2CCC26XX_initHw)
ti_sysbios_knl_Swi_post__E  $Tramp$TT$L$PI$$ti_sysbios_knl_Swi_post__E
   1001b31d     0000957c     0000522a   drivers_cc13xxware.aem3 : UARTCC26XX.oem3 (.text:UARTCC26XX_hwiIntFxn)
                             0000538e                           : I2CCC26XX.oem3 (.text:I2CCC26XX_hwiFxn)
                             00005b9e                           : I2CCC26XX.oem3 (.text:I2CCC26XX_transfer)
                             000061a2                           : SPICC26XXDMA.oem3 (.text:SPICC26XXDMA_hwiFxn)
                             00007bae                           : I2CCC26XX.oem3 (.text:I2CCC26XX_swiFxn)
                             000091b0   rom_sysbios.aem3 : rom_sysbios.obj (.text:ti_sysbios_knl_Swi_or__E)
                             0000927e   tags-cc1310_pem3.oem3 (.text:ti_sysbios_knl_Clock_doTick__I)
ti_sysbios_knl_Semaphore_pend__E  $Tramp$TT$L$PI$$ti_sysbios_knl_Semaphore_pend__E
   1001a001     00009584     00004c7e   drivers_cc13xxware.aem3 : UARTCC26XX.oem3 (.text:UARTCC26XX_write)
                             00004cba                           : UARTCC26XX.oem3 (.text:UARTCC26XX_write)
                             00005ac8                           : SPICC26XXDMA.oem3 (.text:SPICC26XXDMA_transfer)
                             00005ade                           : SPICC26XXDMA.oem3 (.text:SPICC26XXDMA_transfer)
                             00005b46                           : I2CCC26XX.oem3 (.text:I2CCC26XX_transfer)
                             00005b76                           : I2CCC26XX.oem3 (.text:I2CCC26XX_transfer)
                             00005da0                           : UARTCC26XX.oem3 (.text:UARTCC26XX_read)
                             00006646                           : PINCC26XX.oem3 (.text:PIN_open)
                             0000670a   leds.obj (.text:ledsTaskFunction)
                             00007092   drivers_cc13xxware.aem3 : UARTCC26XX.oem3 (.text:writeTxFifoFlush)
                             00007310                           : PINCC26XX.oem3 (.text:PIN_add)
                             00008418   uart.obj (.text:uartLocalRead)
                             00008434   uart.obj (.text:uartLocalRead)
                             00008454   uart.obj (.text:uartLocalWrite)
                             00008470   uart.obj (.text:uartLocalWrite)
ti_sysbios_knl_Mailbox_post__E  $Tramp$TT$L$PI$$ti_sysbios_knl_Mailbox_post__E
   1001a58d     0000958c     00004ab0   i2c_sensors.obj (.text:testTaskFunction)
                             000054b4   uart.obj (.text:uartRxTaskFunction)
                             000063aa   uart.obj (.text:uartTxTaskFunction)
                             0000854e   buffers.obj (.text:buffers_init)
ti_sysbios_knl_Task_sleep__E  $Tramp$TT$L$PI$$ti_sysbios_knl_Task_sleep__E
   1001a9d9     00009594     00004a24   i2c_sensors.obj (.text:testTaskFunction)
                             00004a32   i2c_sensors.obj (.text:testTaskFunction)
                             00004ab6   i2c_sensors.obj (.text:testTaskFunction)
                             0000671a   leds.obj (.text:ledsTaskFunction)
                             0000672a   leds.obj (.text:ledsTaskFunction)
ti_sysbios_knl_Mailbox_pend__E  $Tramp$TT$L$PI$$ti_sysbios_knl_Mailbox_pend__E
   1001a969     0000959c     00004a1a   i2c_sensors.obj (.text:testTaskFunction)
                             000054c2   uart.obj (.text:uartRxTaskFunction)
                             00005e18   receive.obj (.text:receive_init)
                             00006350   uart.obj (.text:uartTxTaskFunction)
                             000069ce   rf_queue_pointer.obj (.text:RFQueue_defineQueue)
ti_sysbios_knl_Clock_setTimeout__E  $Tramp$TT$L$PI$$ti_sysbios_knl_Clock_setTimeout__E
   1001c2bd     000095a4     00004992   drivers_cc13xxware.aem3 : PowerCC26XX.oem3 (.text:Power_init)
                             00005caa   power_cc13xx_tirtos.aem3 : PowerCC26XX_tirtos.oem3 (.text:PowerCC26XX_standbyPolicy)
                             000067d4   drivers_cc13xxware.aem3 : UARTCC26XX.oem3 (.text:writeFinishedDoCallback)
                             000068cc                           : PowerCC26XX.oem3 (.text:switchXOSCHFclockFunc)
                             00006bfe                           : PowerCC26XX.oem3 (.text:disableLFClockQualifiers)
                             00007d08                           : PowerCC26XX.oem3 (.text:configureXOSCHF)
                             00007f32                           : UARTCC26XX.oem3 (.text:startTxFifoEmptyClk)
xdc_runtime_System_abort__E  $Tramp$TT$L$PI$$xdc_runtime_System_abort__E
   1001c745     000095ac     000043c0   leds.obj (.text:leds_init)
                             00006dfc   main.obj (.text:main)
ti_sysbios_knl_Clock_construct  $Tramp$TT$L$PI$$ti_sysbios_knl_Clock_construct
   1001b575     000095b4     000040aa   drivers_cc13xxware.aem3 : UARTCC26XX.oem3 (.text:UARTCC26XX_open)
                             000048ee                           : PowerCC26XX.oem3 (.text:Power_init)
                             000048fc                           : PowerCC26XX.oem3 (.text:Power_init)
                             0000490a                           : PowerCC26XX.oem3 (.text:Power_init)
                             0000739c                           : PowerCC26XX.oem3 (.text:PowerCC26XX_calibrate)
ti_sysbios_knl_Clock_Params__init__S  $Tramp$TT$L$PI$$ti_sysbios_knl_Clock_Params__init__S
   1001c181     000095bc     00004092   drivers_cc13xxware.aem3 : UARTCC26XX.oem3 (.text:UARTCC26XX_open)
                             000048d6                           : PowerCC26XX.oem3 (.text:Power_init)
                             00007384                           : PowerCC26XX.oem3 (.text:PowerCC26XX_calibrate)
ti_sysbios_family_arm_m3_Hwi_restoreFxn__E  $Tramp$TT$L$PI$$ti_sysbios_family_arm_m3_Hwi_restoreFxn__E
   1001c215     000095c4     00003f6e   drivers_cc13xxware.aem3 : UARTCC26XX.oem3 (.text:UARTCC26XX_open)
                             00003f7e                           : UARTCC26XX.oem3 (.text:UARTCC26XX_open)
                             00004004                           : UARTCC26XX.oem3 (.text:UARTCC26XX_open)
                             00004514                           : SPICC26XXDMA.oem3 (.text:SPICC26XXDMA_open)
                             00004524                           : SPICC26XXDMA.oem3 (.text:SPICC26XXDMA_open)
                             00004582                           : SPICC26XXDMA.oem3 (.text:SPICC26XXDMA_open)
                             00004c36                           : UARTCC26XX.oem3 (.text:UARTCC26XX_write)
                             00004c52                           : UARTCC26XX.oem3 (.text:UARTCC26XX_write)
                             00004cf0                           : UARTCC26XX.oem3 (.text:UARTCC26XX_write)
                             00004e1c                           : I2CCC26XX.oem3 (.text:I2CCC26XX_open)
                             00004e2c                           : I2CCC26XX.oem3 (.text:I2CCC26XX_open)
                             000050f2                           : SPICC26XXDMA.oem3 (.text:SPICC26XXDMA_transferCancel)
                             00005162                           : SPICC26XXDMA.oem3 (.text:SPICC26XXDMA_transferCancel)
                             000051b6                           : SPICC26XXDMA.oem3 (.text:SPICC26XXDMA_transferCancel)
                             0000560e                           : PowerCC26XX.oem3 (.text:Power_releaseDependency)
                             000057b2                           : PowerCC26XX.oem3 (.text:Power_setDependency)
                             00005a46                           : SPICC26XXDMA.oem3 (.text:SPICC26XXDMA_transfer)
                             00005a58                           : SPICC26XXDMA.oem3 (.text:SPICC26XXDMA_transfer)
                             00005a9a                           : SPICC26XXDMA.oem3 (.text:SPICC26XXDMA_transfer)
                             00005b20                           : I2CCC26XX.oem3 (.text:I2CCC26XX_transfer)
                             00005b32                           : I2CCC26XX.oem3 (.text:I2CCC26XX_transfer)
                             00005d44                           : UARTCC26XX.oem3 (.text:UARTCC26XX_read)
                             00005d5c                           : UARTCC26XX.oem3 (.text:UARTCC26XX_read)
                             00005d78                           : UARTCC26XX.oem3 (.text:UARTCC26XX_read)
                             00005dc6                           : UARTCC26XX.oem3 (.text:UARTCC26XX_read)
                             00005f40                           : PINCC26XX.oem3 (.text:PINCC26XX_setIoCfg)
                             00006792                           : UARTCC26XX.oem3 (.text:writeFinishedDoCallback)
                             0000686e                           : I2CCC26XX.oem3 (.text:I2CCC26XX_cancel)
                             000068fa                           : PowerCC26XX.oem3 (.text:switchXOSCHFclockFunc)
                             00006b5a                           : UARTCC26XX.oem3 (.text:UARTCC26XX_writeCancel)
                             00006b66                           : UARTCC26XX.oem3 (.text:UARTCC26XX_writeCancel)
                             00006ba8                           : UARTCC26XX.oem3 (.text:UARTCC26XX_writeCancel)
                             00006fc0                           : UARTCC26XX.oem3 (.text:UARTCC26XX_close)
                             000071b6                           : UARTCC26XX.oem3 (.text:UARTCC26XX_readCancel)
                             000071e4                           : UARTCC26XX.oem3 (.text:UARTCC26XX_readCancel)
                             00007200                           : UARTCC26XX.oem3 (.text:UARTCC26XX_readCancel)
                             00007624                           : I2CCC26XX.oem3 (.text:I2CCC26XX_close)
                             00007aa6                           : UDMACC26XX.oem3 (.text:UDMACC26XX_open)
                             00007b68                           : SPICC26XXDMA.oem3 (.text:SPICC26XXDMA_close)
                             00007bee                           : PowerCC26XX_calibrateRCOSC.oem3 (.text:PowerCC26XX_initiateCalibration)
                             00007c5c                           : UARTCC26XX.oem3 (.text:UARTCC26XX_control)
                             00007d60                           : SPICC26XXDMA.oem3 (.text:SPICC26XXDMA_swiFxn)
                             00007e3a                           : UARTCC26XX.oem3 (.text:UARTCC26XX_swiIntFxn)
                             0000800a                           : PINCC26XX.oem3 (.text:PIN_setOutputEnable)
                             00008670                           : UDMACC26XX.oem3 (.text:UDMACC26XX_close)
                             00008834                           : PowerCC26XX.oem3 (.text:Power_releaseConstraint)
                             00008864                           : PowerCC26XX.oem3 (.text:Power_setConstraint)
                             00008c64                           : List.oem3 (.text:List_put)
                             00008de4                           : PowerCC26XX.oem3 (.text:Power_unregisterNotify)
ti_sysbios_family_arm_m3_Hwi_disableFxn__E  $Tramp$TT$L$PI$$ti_sysbios_family_arm_m3_Hwi_disableFxn__E
   1001c145     000095cc     00003f64   drivers_cc13xxware.aem3 : UARTCC26XX.oem3 (.text:UARTCC26XX_open)
                             00003ffe                           : UARTCC26XX.oem3 (.text:UARTCC26XX_open)
                             00004508                           : SPICC26XXDMA.oem3 (.text:SPICC26XXDMA_open)
                             0000457a                           : SPICC26XXDMA.oem3 (.text:SPICC26XXDMA_open)
                             00004c18                           : UARTCC26XX.oem3 (.text:UARTCC26XX_write)
                             00004c3a                           : UARTCC26XX.oem3 (.text:UARTCC26XX_write)
                             00004c92                           : UARTCC26XX.oem3 (.text:UARTCC26XX_write)
                             00004cdc                           : UARTCC26XX.oem3 (.text:UARTCC26XX_write)
                             00004e10                           : I2CCC26XX.oem3 (.text:I2CCC26XX_open)
                             000050e6                           : SPICC26XXDMA.oem3 (.text:SPICC26XXDMA_transferCancel)
                             0000513c                           : SPICC26XXDMA.oem3 (.text:SPICC26XXDMA_transferCancel)
                             0000555a                           : PowerCC26XX.oem3 (.text:Power_releaseDependency)
                             00005702                           : PowerCC26XX.oem3 (.text:Power_setDependency)
                             00005a3c                           : SPICC26XXDMA.oem3 (.text:SPICC26XXDMA_transfer)
                             00005a76                           : SPICC26XXDMA.oem3 (.text:SPICC26XXDMA_transfer)
                             00005b0c                           : I2CCC26XX.oem3 (.text:I2CCC26XX_transfer)
                             00005d34                           : UARTCC26XX.oem3 (.text:UARTCC26XX_read)
                             00005d60                           : UARTCC26XX.oem3 (.text:UARTCC26XX_read)
                             00005db2                           : UARTCC26XX.oem3 (.text:UARTCC26XX_read)
                             00005f22                           : PINCC26XX.oem3 (.text:PINCC26XX_setIoCfg)
                             0000677a                           : UARTCC26XX.oem3 (.text:writeFinishedDoCallback)
                             000067fe                           : I2CCC26XX.oem3 (.text:I2CCC26XX_cancel)
                             00006884                           : PowerCC26XX.oem3 (.text:switchXOSCHFclockFunc)
                             00006b4a                           : UARTCC26XX.oem3 (.text:UARTCC26XX_writeCancel)
                             00006b92                           : UARTCC26XX.oem3 (.text:UARTCC26XX_writeCancel)
                             00006fb8                           : UARTCC26XX.oem3 (.text:UARTCC26XX_close)
                             000071aa                           : UARTCC26XX.oem3 (.text:UARTCC26XX_readCancel)
                             000071ce                           : UARTCC26XX.oem3 (.text:UARTCC26XX_readCancel)
                             0000761c                           : I2CCC26XX.oem3 (.text:I2CCC26XX_close)
                             00007a6c                           : UDMACC26XX.oem3 (.text:UDMACC26XX_open)
                             00007b5e                           : SPICC26XXDMA.oem3 (.text:SPICC26XXDMA_close)
                             00007bda                           : PowerCC26XX_calibrateRCOSC.oem3 (.text:PowerCC26XX_initiateCalibration)
                             00007c3e                           : UARTCC26XX.oem3 (.text:UARTCC26XX_control)
                             00007d3c                           : SPICC26XXDMA.oem3 (.text:SPICC26XXDMA_swiFxn)
                             00007e22                           : UARTCC26XX.oem3 (.text:UARTCC26XX_swiIntFxn)
                             00007ff4                           : PINCC26XX.oem3 (.text:PIN_setOutputEnable)
                             00008646                           : UDMACC26XX.oem3 (.text:UDMACC26XX_close)
                             00008814                           : PowerCC26XX.oem3 (.text:Power_releaseConstraint)
                             00008844                           : PowerCC26XX.oem3 (.text:Power_setConstraint)
                             00008dd4                           : PowerCC26XX.oem3 (.text:Power_unregisterNotify)
                             00009480   tirtosport.aem3 : HwiP_tirtos.oem3 (.text:HwiP_disable)
ti_sysbios_knl_Task_construct  $Tramp$TT$L$PI$$ti_sysbios_knl_Task_construct
   1001b125     000095d4     00003eb0   uart.obj (.text:uartTasks_init)
                             00003edc   uart.obj (.text:uartTasks_init)
                             00004428   leds.obj (.text:leds_init)
                             0000443e   leds.obj (.text:leds_init)
                             0000823a   i2c_sensors.obj (.text:testTask_init)
ti_sysbios_knl_Task_Params__init__S  $Tramp$TT$L$PI$$ti_sysbios_knl_Task_Params__init__S
   1001c1d5     000095dc     00003e8c   uart.obj (.text:uartTasks_init)
                             00003ebe   uart.obj (.text:uartTasks_init)
                             00004406   leds.obj (.text:leds_init)
                             0000821c   i2c_sensors.obj (.text:testTask_init)
ti_sysbios_knl_Semaphore_create  $Tramp$TT$L$PI$$ti_sysbios_knl_Semaphore_create
   1001b5a9     000095e4     00003e32   uart.obj (.text:uartTasks_init)
                             00003e50   uart.obj (.text:uartTasks_init)
                             00003e6e   uart.obj (.text:uartTasks_init)
                             000043de   leds.obj (.text:leds_init)
                             000043ec   leds.obj (.text:leds_init)
ti_sysbios_knl_Mailbox_create  $Tramp$TT$L$PI$$ti_sysbios_knl_Mailbox_create
   1001abdd     000095ec     00003dcc   uart.obj (.text:uartTasks_init)
                             00003ddc   uart.obj (.text:uartTasks_init)
                             00008532   buffers.obj (.text:buffers_init)
ti_sysbios_knl_Clock_start__E  $Tramp$TT$L$PI$$ti_sysbios_knl_Clock_start__E
   1001bfdf     000095f4     00003d92   drivers_cc13xxware.aem3 : PowerCC26XX_calibrateRCOSC.oem3 (.text:PowerCC26XX_doCalibrate)
                             00004998                           : PowerCC26XX.oem3 (.text:Power_init)
                             00005cb0   power_cc13xx_tirtos.aem3 : PowerCC26XX_tirtos.oem3 (.text:PowerCC26XX_standbyPolicy)
                             000067da   drivers_cc13xxware.aem3 : UARTCC26XX.oem3 (.text:writeFinishedDoCallback)
                             000068d2                           : PowerCC26XX.oem3 (.text:switchXOSCHFclockFunc)
                             00006c04                           : PowerCC26XX.oem3 (.text:disableLFClockQualifiers)
                             00007d0e                           : PowerCC26XX.oem3 (.text:configureXOSCHF)
                             00007f38                           : UARTCC26XX.oem3 (.text:startTxFifoEmptyClk)
                             00008e22   rom_sysbios.aem3 : rom_sysbios.obj (.text:ti_sysbios_knl_Clock_stop__E)
xdc_runtime_System_abortSpin__E  $Tramp$TT$L$PI$$xdc_runtime_System_abortSpin__E
   1001c895     000095fc     00003d04   drivers_cc13xxware.aem3 : PowerCC26XX_calibrateRCOSC.oem3 (.text:PowerCC26XX_doCalibrate)
                             00007846                           : PowerCC26XX_calibrateRCOSC.oem3 (.text:PowerCC26XX_RCOSC_clockFunc)
ti_sysbios_knl_Swi_construct  $Tramp$TT$L$PI$$ti_sysbios_knl_Swi_construct
   1001b085     00009604     0000383c   drivers_cc13xxware.aem3 : PINCC26XX.oem3 (.text:PIN_init)
                             0000404e                           : UARTCC26XX.oem3 (.text:UARTCC26XX_open)
                             000045ca                           : SPICC26XXDMA.oem3 (.text:SPICC26XXDMA_open)
                             00004e88                           : I2CCC26XX.oem3 (.text:I2CCC26XX_open)
ti_sysbios_knl_Swi_Params__init__S  $Tramp$TT$L$PI$$ti_sysbios_knl_Swi_Params__init__S
   1001c1c9     0000960c     0000382a   drivers_cc13xxware.aem3 : PINCC26XX.oem3 (.text:PIN_init)
                             00004038                           : UARTCC26XX.oem3 (.text:UARTCC26XX_open)
                             000045b6                           : SPICC26XXDMA.oem3 (.text:SPICC26XXDMA_open)
                             00004e74                           : I2CCC26XX.oem3 (.text:I2CCC26XX_open)
ti_sysbios_family_arm_m3_Hwi_construct  $Tramp$TT$L$PI$$ti_sysbios_family_arm_m3_Hwi_construct
   1001af29     00009614     0000381e   drivers_cc13xxware.aem3 : PINCC26XX.oem3 (.text:PIN_init)
                             0000402c                           : UARTCC26XX.oem3 (.text:UARTCC26XX_open)
                             000045aa                           : SPICC26XXDMA.oem3 (.text:SPICC26XXDMA_open)
                             00004e68                           : I2CCC26XX.oem3 (.text:I2CCC26XX_open)
                             000073ac                           : PowerCC26XX.oem3 (.text:PowerCC26XX_calibrate)
                             00007a96                           : UDMACC26XX.oem3 (.text:UDMACC26XX_open)
ti_sysbios_family_arm_m3_Hwi_Params__init__S  $Tramp$TT$L$PI$$ti_sysbios_family_arm_m3_Hwi_Params__init__S
   1001c139     0000961c     00003808   drivers_cc13xxware.aem3 : PINCC26XX.oem3 (.text:PIN_init)
                             00004014                           : UARTCC26XX.oem3 (.text:UARTCC26XX_open)
                             00004592                           : SPICC26XXDMA.oem3 (.text:SPICC26XXDMA_open)
                             00004e50                           : I2CCC26XX.oem3 (.text:I2CCC26XX_open)
                             00007a80                           : UDMACC26XX.oem3 (.text:UDMACC26XX_open)
ti_sysbios_knl_Semaphore_construct  $Tramp$TT$L$PI$$ti_sysbios_knl_Semaphore_construct
   1001b705     00009624     000037a6   drivers_cc13xxware.aem3 : PINCC26XX.oem3 (.text:PIN_init)
                             0000406e                           : UARTCC26XX.oem3 (.text:UARTCC26XX_open)
                             00004082                           : UARTCC26XX.oem3 (.text:UARTCC26XX_open)
                             000045ea                           : SPICC26XXDMA.oem3 (.text:SPICC26XXDMA_open)
                             00004ea4                           : I2CCC26XX.oem3 (.text:I2CCC26XX_open)
                             00004eb4                           : I2CCC26XX.oem3 (.text:I2CCC26XX_open)
                             00005e04   receive.obj (.text:receive_init)
ti_sysbios_knl_Semaphore_Params__init__S  $Tramp$TT$L$PI$$ti_sysbios_knl_Semaphore_Params__init__S
   1001c1bd     0000962c     00003794   drivers_cc13xxware.aem3 : PINCC26XX.oem3 (.text:PIN_init)
                             00003e24   uart.obj (.text:uartTasks_init)
                             00003e42   uart.obj (.text:uartTasks_init)
                             00003e60   uart.obj (.text:uartTasks_init)
                             0000405a   drivers_cc13xxware.aem3 : UARTCC26XX.oem3 (.text:UARTCC26XX_open)
                             000043d4   leds.obj (.text:leds_init)
                             000045da   drivers_cc13xxware.aem3 : SPICC26XXDMA.oem3 (.text:SPICC26XXDMA_open)
                             00004e94                           : I2CCC26XX.oem3 (.text:I2CCC26XX_open)
                             00005df8   receive.obj (.text:receive_init)
ti_sysbios_knl_Task_restore__E  $Tramp$TT$L$PI$$ti_sysbios_knl_Task_restore__E
   1001ba45     00009634     000032bc   drivers_cc13xxware.aem3 : PowerCC26XX.oem3 (.text:Power_sleep)
ti_sysbios_knl_Swi_restore__E  $Tramp$TT$L$PI$$ti_sysbios_knl_Swi_restore__E
   1001b5dd     0000963c     000032b2   drivers_cc13xxware.aem3 : PowerCC26XX.oem3 (.text:Power_sleep)
ti_sysbios_knl_Swi_disable__E  $Tramp$TT$L$PI$$ti_sysbios_knl_Swi_disable__E
   1001c0d1     00009644     0000310e   drivers_cc13xxware.aem3 : PowerCC26XX.oem3 (.text:Power_sleep)
                             00008932   tags-cc1310_pem3.oem3 (.text:ti_sysbios_BIOS_atExitFunc__I)
ti_sysbios_knl_Task_disable__E  $Tramp$TT$L$PI$$ti_sysbios_knl_Task_disable__E
   1001c0f1     0000964c     000030f6   drivers_cc13xxware.aem3 : PowerCC26XX.oem3 (.text:Power_sleep)
                             00008936   tags-cc1310_pem3.oem3 (.text:ti_sysbios_BIOS_atExitFunc__I)

[54 trampolines]
[267 trampoline calls]


GLOBAL SYMBOLS: SORTED ALPHABETICALLY BY Name 

address   name                                                                      
-------   ----                                                                      
00000b68  BoardGpioInitTable                                                        
0000752f  C$$IO$$                                                                   
00002e5d  HOSTclock                                                                 
00002e25  HOSTclose                                                                 
00002de7  HOSTgetenv                                                                
00002d8b  HOSTlseek                                                                 
00002d39  HOSTopen                                                                  
00002ced  HOSTread                                                                  
00002c8f  HOSTrename                                                                
00002c55  HOSTtime                                                                  
00002c1d  HOSTunlink                                                                
00002bd1  HOSTwrite                                                                 
00009481  HwiP_disable                                                              
UNDEFED   HwiP_restore                                                              
000067f1  I2CCC26XX_cancel                                                          
000075d1  I2CCC26XX_close                                                           
0000945d  I2CCC26XX_control                                                         
00000cbc  I2CCC26XX_fxnTable                                                        
00009401  I2CCC26XX_init                                                            
00004e01  I2CCC26XX_open                                                            
00005aed  I2CCC26XX_transfer                                                        
000092ad  I2C_Params_init                                                           
00000cfc  I2C_config                                                                
00000d94  I2C_defaultParams                                                         
000087b1  I2C_open                                                                  
0000940b  List_empty                                                                
00009485  List_head                                                                 
00009489  List_next                                                                 
00008c45  List_put                                                                  
00008f6d  List_remove                                                               
00008b7d  NOROM_AONBatMonTemperatureGetDegC                                         
00009225  NOROM_AONRTCCurrent64BitValueGet                                          
00008fbd  NOROM_AONRTCCurrentCompareValueGet                                        
00009363  NOROM_CPUcpsid                                                            
0000936f  NOROM_CPUcpsie                                                            
00009463  NOROM_CPUdelay                                                            
00007f91  NOROM_ChipInfo_GetChipFamily                                              
000070c1  NOROM_ChipInfo_GetHwRevision                                              
00008fd5  NOROM_ChipInfo_GetPackageType                                             
00008a4d  NOROM_DDI32RegWrite                                                       
00008a79  NOROM_OSCClockSourceGet                                                   
000077c5  NOROM_OSCClockSourceSet                                                   
00007699  NOROM_OSCHF_AttemptToSwitchToXosc                                         
00008679  NOROM_OSCHF_SwitchToRcOscTurnOffXosc                                      
00008fed  NOROM_OSCHF_TurnOnXosc                                                    
00008319  NOROM_OSC_HPOSCRelativeFrequencyOffsetGet                                 
000061f1  NOROM_SetupAfterColdResetWakeupFromShutDownCfg1                           
00004ff1  NOROM_SetupAfterColdResetWakeupFromShutDownCfg2                           
00004779  NOROM_SetupAfterColdResetWakeupFromShutDownCfg3                           
00009005  NOROM_SetupGetTrimForAdcShModeEn                                          
0000901d  NOROM_SetupGetTrimForAdcShVbufEn                                          
00007281  NOROM_SetupGetTrimForAmpcompCtrl                                          
00009035  NOROM_SetupGetTrimForAmpcompTh1                                           
00008e8d  NOROM_SetupGetTrimForAmpcompTh2                                           
00007431  NOROM_SetupGetTrimForAnabypassValue1                                      
0000904d  NOROM_SetupGetTrimForDblrLoopFilterResetVoltage                           
00008aa5  NOROM_SetupGetTrimForRadcExtCfg                                           
00009065  NOROM_SetupGetTrimForRcOscLfIBiasTrim                                     
00008ea9  NOROM_SetupGetTrimForRcOscLfRtuneCtuneTrim                                
00008db1  NOROM_SetupGetTrimForXoscHfCtl                                            
000092bd  NOROM_SetupGetTrimForXoscHfFastStart                                      
000092cd  NOROM_SetupGetTrimForXoscHfIbiastherm                                     
0000907d  NOROM_SetupGetTrimForXoscLfRegulatorAndCmirrwrRatio                       
000087e1  NOROM_SetupSetAonRtcSubSecInc                                             
00007d79  NOROM_SetupSetCacheModeAccordingToCcfgSetting                             
00007131  NOROM_SetupSetVddrLevel                                                   
0000931d  NOROM_SetupSignExtendVddrTrimValue                                        
00006005  NOROM_SetupTrimDevice                                                     
000079a5  NOROM_SysCtrlAdjustRechargeAfterPowerDown                                 
00002ea5  NOROM_SysCtrlSetRechargeBeforePowerDown                                   
00007499  NOROM_SysCtrl_DCDC_VoltageConditionalControl                              
000091cd  NOROM_ThisCodeIsBuiltForCC13xxHwRev20AndLater_HaltIfViolated              
0000932b  NOROM_VIMSModeGet                                                         
00008355  PINCC26XX_getConfig                                                       
00008c6d  PINCC26XX_getPinCount                                                     
00000db0  PINCC26XX_hwAttrs                                                         
00008ad1  PINCC26XX_setMux                                                          
20002d54  PIN_HandleTable                                                           
20003188  PIN_NumPins                                                               
000072ed  PIN_add                                                                   
00008e51  PIN_close                                                                 
00009095  PIN_getConfig                                                             
000036dd  PIN_init                                                                  
00006635  PIN_open                                                                  
0000937b  PIN_registerIntCb                                                         
00007a01  PIN_remove                                                                
000086ad  PIN_setConfig                                                             
00008481  PIN_setInterrupt                                                          
00007fd9  PIN_setOutputEnable                                                       
00008391  PIN_setOutputValue                                                        
00007825  PowerCC26XX_RCOSC_clockFunc                                               
00006fd9  PowerCC26XX_auxISR                                                        
00007359  PowerCC26XX_calibrate                                                     
00000d74  PowerCC26XX_config                                                        
00003c1d  PowerCC26XX_doCalibrate                                                   
00007bc9  PowerCC26XX_initiateCalibration                                           
200031c8  PowerCC26XX_module                                                        
00005c6d  PowerCC26XX_standbyPolicy                                                 
00009389  Power_getConstraintMask                                                   
00009395  Power_getDependencyCount                                                  
00008e6f  Power_getTransitionLatency                                                
000090ad  Power_idleFunc                                                            
000048a9  Power_init                                                                
00008ba5  Power_registerNotify                                                      
00008811  Power_releaseConstraint                                                   
00005555  Power_releaseDependency                                                   
00008841  Power_setConstraint                                                       
000056fd  Power_setDependency                                                       
000030d5  Power_sleep                                                               
00008dd1  Power_unregisterNotify                                                    
0000699d  RFQueue_defineQueue                                                       
00008189  ResetISR                                                                  
UNDEFED   SHT$$INIT_ARRAY$$Base                                                     
UNDEFED   SHT$$INIT_ARRAY$$Limit                                                    
00007b15  SPICC26XXDMA_close                                                        
00006a29  SPICC26XXDMA_control                                                      
00000a80  SPICC26XXDMA_fxnTable                                                     
00009339  SPICC26XXDMA_init                                                         
000044f9  SPICC26XXDMA_open                                                         
00005a29  SPICC26XXDMA_transfer                                                     
000050dd  SPICC26XXDMA_transferCancel                                               
00009239  SPI_Params_init                                                           
00000c74  SPI_config                                                                
00000cdc  SPI_defaultParams                                                         
000084b9  SPI_init                                                                  
00008871  SPI_open                                                                  
00009415  SPI_transfer                                                              
00008bf5  SafeHapiVoid                                                              
00006f61  UARTCC26XX_close                                                          
00007c21  UARTCC26XX_control                                                        
00000c4c  UARTCC26XX_fxnTable                                                       
000051c9  UARTCC26XX_hwiIntFxn                                                      
000090c5  UARTCC26XX_init                                                           
00003f51  UARTCC26XX_open                                                           
00005d29  UARTCC26XX_read                                                           
000071a1  UARTCC26XX_readCancel                                                     
00009469  UARTCC26XX_readPolling                                                    
00007e19  UARTCC26XX_swiIntFxn                                                      
00004c09  UARTCC26XX_write                                                          
00006b41  UARTCC26XX_writeCancel                                                    
0000946f  UARTCC26XX_writePolling                                                   
000090dd  UART_Params_init                                                          
00000d14  UART_config                                                               
00000c98  UART_defaultParams                                                        
000084f1  UART_init                                                                 
000088a1  UART_open                                                                 
0000941f  UART_read                                                                 
00009429  UART_write                                                                
00008641  UDMACC26XX_close                                                          
00000d84  UDMACC26XX_config                                                         
00009433  UDMACC26XX_hwiIntFxn                                                      
00007a5d  UDMACC26XX_open                                                           
00008b29  _Dclass                                                                   
200037d8  _Denorm                                                                   
00005baf  _Dnorm                                                                    
00004af9  _Dscale                                                                   
00007569  _Dunscale                                                                 
200037e8  _Eps                                                                      
20003b94  _Errno                                                                    
20003b84  _Fenv                                                                     
00008901  _Feraise                                                                  
200037f8  _Hugeval                                                                  
20003808  _Inf                                                                      
20003818  _Nan                                                                      
20003838  _Rteps                                                                    
20003828  _Snan                                                                     
20003b88  _Tls_setup__Fenv                                                          
20003848  _Xbig                                                                     
20003850  _Zero                                                                     
00000000  __ASM__                                                                   
200028d8  __CIOBUF_                                                                 
00000000  __FLASH_ADDR                                                              
0001e000  __FLASH_DATA_ADDR                                                         
00001000  __FLASH_DATA_SIZE                                                         
00020000  __FLASH_SIZE                                                              
00000065  __ISA__                                                                   
00000077  __PLAT__                                                                  
20005000  __STACK_END                                                               
00000300  __STACK_SIZE                                                              
0000009e  __TARG__                                                                  
00009b28  __TI_CINIT_Base                                                           
00009bb0  __TI_CINIT_Limit                                                          
00009aa8  __TI_Handler_Table_Base                                                   
00009ab4  __TI_Handler_Table_Limit                                                  
00006291  __TI_auto_init                                                            
00003969  __TI_cleanup                                                              
20003b7c  __TI_cleanup_ptr                                                          
0000646d  __TI_closefile                                                            
00009347  __TI_decompress_none                                                      
0000947b  __TI_decompress_rle24                                                     
00005961  __TI_doflush                                                              
20003b80  __TI_dtors_ptr                                                            
20003b40  __TI_ft_end                                                               
00002285  __TI_printfi                                                              
00005fbb  __TI_rd_ok                                                                
00007533  __TI_readmsg                                                              
00009658  __TI_static_base__                                                        
20002cb4  __TI_tmpnams                                                              
00007501  __TI_writemsg                                                             
00005f59  __TI_wrt_ok                                                               
000093a1  __TI_zero_init                                                            
000000c3  __TRDR__                                                                  
00006ce1  __aeabi_cdcmpeq                                                           
00006ce1  __aeabi_cdcmple                                                           
00006d67  __aeabi_cdrcmple                                                          
000080b1  __aeabi_d2iz                                                              
000081cd  __aeabi_d2uiz                                                             
00003a6f  __aeabi_dadd                                                              
00004641  __aeabi_ddiv                                                              
00004d05  __aeabi_dmul                                                              
00003a65  __aeabi_dsub                                                              
00008599  __aeabi_f2d                                                               
000089ef  __aeabi_i2d                                                               
00004777  __aeabi_idiv0                                                             
0000913d  __aeabi_lmul                                                              
00006ee5  __aeabi_memclr                                                            
00006ee5  __aeabi_memclr4                                                           
00006ee5  __aeabi_memclr8                                                           
000063d1  __aeabi_memcpy                                                            
000063d1  __aeabi_memcpy4                                                           
000063d1  __aeabi_memcpy8                                                           
00006ee7  __aeabi_memset                                                            
00006ee7  __aeabi_memset4                                                           
00006ee7  __aeabi_memset8                                                           
20003b4c  __aeabi_stderr                                                            
20003b44  __aeabi_stdin                                                             
20003b48  __aeabi_stdout                                                            
000082d9  __aeabi_uidiv                                                             
000082d9  __aeabi_uidivmod                                                          
000032fd  __aeabi_uldivmod                                                          
ffffffff  __binit__                                                                 
ffffffff  __c_args__                                                                
0001ffa8  __ccfg                                                                    
20004d00  __stack                                                                   
00009475  __xdc__init                                                               
200034a4  __xdc__init__addr                                                         
00009125  _args_main                                                                
00008189  _c_int00                                                                  
0000097c  _ctypes_                                                                  
200032d8  _ftable                                                                   
20003b74  _lock                                                                     
0000925b  _nop                                                                      
00009253  _register_lock                                                            
0000924d  _register_unlock                                                          
20003b78  _unlock                                                                   
00002b25  add_device                                                                
00007e65  atoi                                                                      
ffffffff  binit                                                                     
20000520  buffers                                                                   
00008529  buffers_init                                                              
00002ad5  close                                                                     
00007eb1  copy_in                                                                   
20003178  dataQueue                                                                 
200031c4  driverlib_release_0_46593                                                 
000064d3  fclose                                                                    
000086e1  feraiseexcept                                                             
000059ad  fflush                                                                    
000039bf  fopen                                                                     
00006505  fputc                                                                     
0000910d  free                                                                      
2000318c  freeMailbox                                                               
00003995  freopen                                                                   
00008d8d  frexp                                                                     
000076fd  fseek                                                                     
00000d2c  i2cCC26xxHWAttrs                                                          
20002b0c  i2cCC26xxObjects                                                          
20003190  i2cHandle                                                                 
000060a9  i2cSensorsInit                                                            
20003194  incomingBuffer                                                            
00008141  ldexp                                                                     
20002dd0  ledsGrnTask                                                               
20002e20  ledsRedTask                                                               
20003158  ledsSemaphores                                                            
000043a9  leds_init                                                                 
00002ab1  lseek                                                                     
00007c79  ltoa                                                                      
00006ded  main                                                                      
20003b9c  main_func_sp                                                              
000089c1  malloc                                                                    
00008f87  memccpy                                                                   
000063d1  memcpy                                                                    
00006eed  memset                                                                    
00002a03  open                                                                      
200031a0  packetReceivedSemaphore                                                   
2000311c  packetReceivedSemaphoreStruct                                             
20003b68  pinTable                                                                  
00006505  putc                                                                      
00006589  putchar                                                                   
00004ef9  radioSetup_init                                                           
20003858  radio_cmd_fs                                                              
20003628  radio_cmd_prop_div_setup                                                  
200036c8  radio_cmd_prop_rx                                                         
200038b8  radio_cmd_prop_tx                                                         
20003758  radio_cmd_prop_tx_adv                                                     
20003a68  radio_mode                                                                
00008a1d  raise                                                                     
000029df  read                                                                      
200031a4  readEntry                                                                 
200031a8  readyBuffer                                                               
00005de5  receive_init                                                              
00002955  remove                                                                    
000029b7  remove_device                                                             
00002979  rename                                                                    
00000ad4  resourceDB                                                                
UNDEFED   scifOsalEnterCriticalSection                                              
UNDEFED   scifOsalLeaveCriticalSection                                              
0000539d  setvbuf                                                                   
00008299  signal                                                                    
00000be8  spiCC26XXDMAHWAttrs                                                       
20002720  spiCC26XXDMAObjects                                                       
200031ac  spiHandle                                                                 
000078e5  sprintf                                                                   
000091e3  strchr                                                                    
00009155  strcmp                                                                    
000091f9  strcpy                                                                    
00009261  strlen                                                                    
000088d1  strncpy                                                                   
20002e70  testTask                                                                  
00008211  testTask_init                                                             
200001a4  ti_sysbios_BIOS_Module__state__V                                          
1001bc25  ti_sysbios_BIOS_RtsGateProxy_Handle__label__S                             
UNDEFED   ti_sysbios_BIOS_RtsGateProxy_Handle__label__S__mangled__                  
1001bab5  ti_sysbios_BIOS_RtsGateProxy_Object__delete__S                            
UNDEFED   ti_sysbios_BIOS_RtsGateProxy_Object__delete__S__mangled__                 
1001c175  ti_sysbios_BIOS_RtsGateProxy_Params__init__S                              
UNDEFED   ti_sysbios_BIOS_RtsGateProxy_Params__init__S__mangled__                   
1001c245  ti_sysbios_BIOS_RtsGateProxy_enter__E                                     
1001c249  ti_sysbios_BIOS_RtsGateProxy_leave__E                                     
1001c271  ti_sysbios_BIOS_RtsGateProxy_query__E                                     
UNDEFED   ti_sysbios_BIOS_RtsGateProxy_query__E__mangled__                          
00008931  ti_sysbios_BIOS_atExitFunc__I                                             
0000920f  ti_sysbios_BIOS_exitFunc__I                                               
1001c031  ti_sysbios_BIOS_exit__E                                                   
1001bff5  ti_sysbios_BIOS_getCpuFreq__E                                             
000061ef  ti_sysbios_BIOS_linkedWithIncorrectBootLibrary__E                         
00006f5f  ti_sysbios_BIOS_nullFunc__I                                               
00008cb5  ti_sysbios_BIOS_registerRTSLock__I                                        
00008cd9  ti_sysbios_BIOS_removeRTSLock__I                                          
00008df1  ti_sysbios_BIOS_rtsLock__I                                                
0000916d  ti_sysbios_BIOS_rtsUnlock__I                                              
1001c041  ti_sysbios_BIOS_setThreadType__E                                          
00008715  ti_sysbios_BIOS_startFunc__I                                              
1001c051  ti_sysbios_BIOS_start__E                                                  
00006005  ti_sysbios_family_arm_cc26xx_Boot_trimDevice                              
00001406  ti_sysbios_family_arm_cc26xx_Timer_Module__id__C                          
200033c8  ti_sysbios_family_arm_cc26xx_Timer_Module__root__V                        
1001bb45  ti_sysbios_family_arm_cc26xx_Timer_Module__startupDone__S                 
200001e4  ti_sysbios_family_arm_cc26xx_Timer_Module__state__V                       
1001ba6d  ti_sysbios_family_arm_cc26xx_Timer_Module_startup__E                      
20003a20  ti_sysbios_family_arm_cc26xx_Timer_Object__table__V                       
00008f19  ti_sysbios_family_arm_cc26xx_Timer_dynamicStub__E                         
00009495  ti_sysbios_family_arm_cc26xx_Timer_getCount64__E                          
000085d1  ti_sysbios_family_arm_cc26xx_Timer_getCurrentTick__E                      
1001c24d  ti_sysbios_family_arm_cc26xx_Timer_getExpiredTicks__E                     
00008c1d  ti_sysbios_family_arm_cc26xx_Timer_getMaxTicks__E                         
1001c251  ti_sysbios_family_arm_cc26xx_Timer_getPeriod__E                           
00008961  ti_sysbios_family_arm_cc26xx_Timer_initDevice__I                          
1001a465  ti_sysbios_family_arm_cc26xx_Timer_periodicStub__E                        
1001b765  ti_sysbios_family_arm_cc26xx_Timer_postInit__I                            
0000877d  ti_sysbios_family_arm_cc26xx_Timer_setNextTick__E                         
1001c255  ti_sysbios_family_arm_cc26xx_Timer_setPeriod__E                           
00008991  ti_sysbios_family_arm_cc26xx_Timer_setThreshold__I                        
00007761  ti_sysbios_family_arm_cc26xx_Timer_start__E                               
00001384  ti_sysbios_family_arm_cc26xx_Timer_startupNeeded__C                       
1001b791  ti_sysbios_family_arm_cc26xx_Timer_startup__E                             
200001ec  ti_sysbios_family_arm_cc26xx_TimestampProvider_Module__state__V           
1001bb65  ti_sysbios_family_arm_cc26xx_TimestampProvider_Module_startup__E          
00009355  ti_sysbios_family_arm_cc26xx_TimestampProvider_get32__E                   
1001b9cd  ti_sysbios_family_arm_cc26xx_TimestampProvider_get64__E                   
1001c12b  ti_sysbios_family_arm_cc26xx_TimestampProvider_getFreq__E                 
00001408  ti_sysbios_family_arm_cc26xx_TimestampProvider_useClockTimer__C           
00001388  ti_sysbios_family_arm_m3_Hwi_E_alreadyDefined__C                          
0000138c  ti_sysbios_family_arm_m3_Hwi_E_hwiLimitExceeded__C                        
1001aed1  ti_sysbios_family_arm_m3_Hwi_Instance_finalize__E                         
1001a3c5  ti_sysbios_family_arm_m3_Hwi_Instance_init__E                             
200033f0  ti_sysbios_family_arm_m3_Hwi_Module_State_0_excActive__A                  
200033f4  ti_sysbios_family_arm_m3_Hwi_Module_State_0_excContext__A                 
200033f8  ti_sysbios_family_arm_m3_Hwi_Module_State_0_excStack__A                   
0000140a  ti_sysbios_family_arm_m3_Hwi_Module__id__C                                
200033d0  ti_sysbios_family_arm_m3_Hwi_Module__root__V                              
1001bb85  ti_sysbios_family_arm_m3_Hwi_Module__startupDone__S                       
20000144  ti_sysbios_family_arm_m3_Hwi_Module__state__V                             
1001b1c1  ti_sysbios_family_arm_m3_Hwi_Module_startup__E                            
00001390  ti_sysbios_family_arm_m3_Hwi_NUM_INTERRUPTS__C                            
000011d0  ti_sysbios_family_arm_m3_Hwi_Object__DESC__C                              
00001070  ti_sysbios_family_arm_m3_Hwi_Object__PARAMS__C                            
00001394  ti_sysbios_family_arm_m3_Hwi_Object__count__C                             
1001aab1  ti_sysbios_family_arm_m3_Hwi_Object__create__S                            
1001bba5  ti_sysbios_family_arm_m3_Hwi_Object__delete__S                            
1001be65  ti_sysbios_family_arm_m3_Hwi_Object__destruct__S                          
1001b7bd  ti_sysbios_family_arm_m3_Hwi_Object__get__S                               
00001398  ti_sysbios_family_arm_m3_Hwi_Object__table__C                             
200033d8  ti_sysbios_family_arm_m3_Hwi_Object__table__V                             
1001c139  ti_sysbios_family_arm_m3_Hwi_Params__init__S                              
0000139c  ti_sysbios_family_arm_m3_Hwi_ccr__C                                       
00008f35  ti_sysbios_family_arm_m3_Hwi_clearInterrupt__E                            
1001af29  ti_sysbios_family_arm_m3_Hwi_construct                                    
1001ab15  ti_sysbios_family_arm_m3_Hwi_create                                       
1001c259  ti_sysbios_family_arm_m3_Hwi_delete                                       
1001c25d  ti_sysbios_family_arm_m3_Hwi_destruct                                     
1001c145  ti_sysbios_family_arm_m3_Hwi_disableFxn__E                                
1001b251  ti_sysbios_family_arm_m3_Hwi_disableInterrupt__E                          
1001aa49  ti_sysbios_family_arm_m3_Hwi_dispatchC__I                                 
20002bec  ti_sysbios_family_arm_m3_Hwi_dispatchTable                                
1001c899  ti_sysbios_family_arm_m3_Hwi_dispatch__I                                  
1001c1f7  ti_sysbios_family_arm_m3_Hwi_doSwiRestore__I                              
1001c20f  ti_sysbios_family_arm_m3_Hwi_doTaskRestore__I                             
1001c151  ti_sysbios_family_arm_m3_Hwi_enableFxn__E                                 
1001b295  ti_sysbios_family_arm_m3_Hwi_enableInterrupt__E                           
1001c9fd  ti_sysbios_family_arm_m3_Hwi_excHandlerAsm__I                             
000013a0  ti_sysbios_family_arm_m3_Hwi_excHandlerFunc__C                            
1001bbc5  ti_sysbios_family_arm_m3_Hwi_excHandler__I                                
1001b461  ti_sysbios_family_arm_m3_Hwi_getStackInfo__E                              
1001a695  ti_sysbios_family_arm_m3_Hwi_initNVIC__E                                  
1001c9b5  ti_sysbios_family_arm_m3_Hwi_initStacks__E                                
000013a4  ti_sysbios_family_arm_m3_Hwi_nullIsrFunc__C                               
000013a8  ti_sysbios_family_arm_m3_Hwi_numSparseInterrupts__C                       
e000e000  ti_sysbios_family_arm_m3_Hwi_nvic                                         
1001ca3b  ti_sysbios_family_arm_m3_Hwi_pendSV__I                                    
1001c061  ti_sysbios_family_arm_m3_Hwi_plug__E                                      
1001a315  ti_sysbios_family_arm_m3_Hwi_postInit__I                                  
000013ac  ti_sysbios_family_arm_m3_Hwi_priGroup__C                                  
20000000  ti_sysbios_family_arm_m3_Hwi_ramVectors                                   
00000000  ti_sysbios_family_arm_m3_Hwi_resetVectors                                 
1001c215  ti_sysbios_family_arm_m3_Hwi_restoreFxn__E                                
1001ca53  ti_sysbios_family_arm_m3_Hwi_return                                       
1001be81  ti_sysbios_family_arm_m3_Hwi_setPriority__E                               
1001c1ff  ti_sysbios_family_arm_m3_Hwi_startup__E                                   
1001c009  ti_sysbios_family_arm_m3_Hwi_switchFromBootStack__E                       
1001c261  ti_sysbios_family_arm_m3_TaskSupport_Module__startupDone__S               
1001c969  ti_sysbios_family_arm_m3_TaskSupport_buildTaskStack                       
1001c15d  ti_sysbios_family_arm_m3_TaskSupport_getStackAlignment__E                 
1001ca55  ti_sysbios_family_arm_m3_TaskSupport_glue                                 
000013b0  ti_sysbios_family_arm_m3_TaskSupport_stackAlignment__C                    
1001b499  ti_sysbios_family_arm_m3_TaskSupport_start__E                             
1001ca65  ti_sysbios_family_arm_m3_TaskSupport_swap__E                              
00000dc8  ti_sysbios_family_arm_m3_Timer_E_cannotSupport__C                         
00000a7e  ti_sysbios_family_arm_m3_Timer_Module__id__C                              
200033fc  ti_sysbios_family_arm_m3_Timer_Module__root__V                            
00009185  ti_sysbios_family_arm_m3_Timer_Module__startupDone__F                     
00009185  ti_sysbios_family_arm_m3_Timer_Module__startupDone__S                     
20003b5c  ti_sysbios_family_arm_m3_Timer_Module__state__V                           
00008cfd  ti_sysbios_family_arm_m3_Timer_Module_startup__E                          
00008749  ti_sysbios_family_arm_m3_Timer_initDevice__I                              
00008d21  ti_sysbios_family_arm_m3_Timer_postInit__I                                
000080f9  ti_sysbios_family_arm_m3_Timer_setPeriod__E                               
00008255  ti_sysbios_family_arm_m3_Timer_start__E                                   
00000dcc  ti_sysbios_family_arm_m3_Timer_startupNeeded__C                           
00008d45  ti_sysbios_family_arm_m3_Timer_startup__E                                 
00008f51  ti_sysbios_family_arm_m3_Timer_stop__E                                    
1001ca1d  ti_sysbios_family_xxx_Hwi_switchAndRunFunc                                
1001bbe5  ti_sysbios_gates_GateHwi_Handle__label__S                                 
1001b45f  ti_sysbios_gates_GateHwi_Instance_init__E                                 
0000111c  ti_sysbios_gates_GateHwi_Module__FXNS__C                                  
0000140c  ti_sysbios_gates_GateHwi_Module__id__C                                    
20003404  ti_sysbios_gates_GateHwi_Module__root__V                                  
000011f0  ti_sysbios_gates_GateHwi_Object__DESC__C                                  
00001330  ti_sysbios_gates_GateHwi_Object__PARAMS__C                                
1001ba91  ti_sysbios_gates_GateHwi_Object__create__S                                
1001bc05  ti_sysbios_gates_GateHwi_Object__delete__S                                
2000340c  ti_sysbios_gates_GateHwi_Object__table__V                                 
1001c169  ti_sysbios_gates_GateHwi_enter__E                                         
1001c21b  ti_sysbios_gates_GateHwi_leave__E                                         
1001c265  ti_sysbios_gates_GateHwi_query__E                                         
1001bc25  ti_sysbios_gates_GateMutex_Handle__label__S                               
000014d0  ti_sysbios_gates_GateMutex_Instance_State_sem__O                          
1001c071  ti_sysbios_gates_GateMutex_Instance_finalize__E                           
1001be9d  ti_sysbios_gates_GateMutex_Instance_init__E                               
00001140  ti_sysbios_gates_GateMutex_Module__FXNS__C                                
0000140e  ti_sysbios_gates_GateMutex_Module__id__C                                  
20003410  ti_sysbios_gates_GateMutex_Module__root__V                                
00001210  ti_sysbios_gates_GateMutex_Object__DESC__C                                
00001348  ti_sysbios_gates_GateMutex_Object__PARAMS__C                              
1001b645  ti_sysbios_gates_GateMutex_Object__create__S                              
1001bab5  ti_sysbios_gates_GateMutex_Object__delete__S                              
1001bc45  ti_sysbios_gates_GateMutex_Object__destruct__S                            
20003aa8  ti_sysbios_gates_GateMutex_Object__table__V                               
1001c175  ti_sysbios_gates_GateMutex_Params__init__S                                
1001b7e9  ti_sysbios_gates_GateMutex_construct                                      
1001b675  ti_sysbios_gates_GateMutex_create                                         
1001c269  ti_sysbios_gates_GateMutex_delete                                         
1001c26d  ti_sysbios_gates_GateMutex_destruct                                       
1001b6a5  ti_sysbios_gates_GateMutex_enter__E                                       
1001bf99  ti_sysbios_gates_GateMutex_leave__E                                       
1001c271  ti_sysbios_gates_GateMutex_query__E                                       
1001c275  ti_sysbios_hal_Hwi_HwiProxy_Module__startupDone__S                        
UNDEFED   ti_sysbios_hal_Hwi_HwiProxy_Module__startupDone__S__mangled__             
1001c081  ti_sysbios_hal_Hwi_HwiProxy_Object__create__S                             
1001bba5  ti_sysbios_hal_Hwi_HwiProxy_Object__delete__S                             
UNDEFED   ti_sysbios_hal_Hwi_HwiProxy_Object__delete__S__mangled__                  
1001c139  ti_sysbios_hal_Hwi_HwiProxy_Params__init__S                               
UNDEFED   ti_sysbios_hal_Hwi_HwiProxy_Params__init__S__mangled__                    
00008f35  ti_sysbios_hal_Hwi_HwiProxy_clearInterrupt__E                             
1001be45  ti_sysbios_hal_Hwi_HwiProxy_create                                        
1001c279  ti_sysbios_hal_Hwi_HwiProxy_delete                                        
1001c27d  ti_sysbios_hal_Hwi_HwiProxy_disableInterrupt__E                           
UNDEFED   ti_sysbios_hal_Hwi_HwiProxy_disableInterrupt__E__mangled__                
1001c281  ti_sysbios_hal_Hwi_HwiProxy_enableInterrupt__E                            
UNDEFED   ti_sysbios_hal_Hwi_HwiProxy_enableInterrupt__E__mangled__                 
1001c285  ti_sysbios_hal_Hwi_HwiProxy_getStackInfo__E                               
UNDEFED   ti_sysbios_hal_Hwi_HwiProxy_getStackInfo__E__mangled__                    
1001c289  ti_sysbios_hal_Hwi_HwiProxy_startup__E                                    
UNDEFED   ti_sysbios_hal_Hwi_HwiProxy_startup__E__mangled__                         
1001c28d  ti_sysbios_hal_Hwi_HwiProxy_switchFromBootStack__E                        
UNDEFED   ti_sysbios_hal_Hwi_HwiProxy_switchFromBootStack__E__mangled__             
1001c1ed  ti_sysbios_hal_Hwi_Instance_finalize__E                                   
1001b9f5  ti_sysbios_hal_Hwi_Instance_init__E                                       
20003418  ti_sysbios_hal_Hwi_Module__root__V                                        
1001c01d  ti_sysbios_hal_Hwi_Module_startup__E                                      
00001230  ti_sysbios_hal_Hwi_Object__DESC__C                                        
000010a0  ti_sysbios_hal_Hwi_Object__PARAMS__C                                      
1001bc65  ti_sysbios_hal_Hwi_Object__delete__S                                      
00008f35  ti_sysbios_hal_Hwi_clearInterrupt__E                                      
1001ab79  ti_sysbios_hal_Hwi_create                                                 
1001c291  ti_sysbios_hal_Hwi_delete                                                 
1001c27d  ti_sysbios_hal_Hwi_disableInterrupt__E                                    
UNDEFED   ti_sysbios_hal_Hwi_disableInterrupt__E                                    
1001c281  ti_sysbios_hal_Hwi_enableInterrupt__E                                     
UNDEFED   ti_sysbios_hal_Hwi_enableInterrupt__E                                     
1001c285  ti_sysbios_hal_Hwi_getStackInfo__E                                        
UNDEFED   ti_sysbios_hal_Hwi_getStackInfo__E                                        
1001b815  ti_sysbios_hal_Hwi_initStack                                              
1001c289  ti_sysbios_hal_Hwi_startup__E                                             
UNDEFED   ti_sysbios_hal_Hwi_startup__E                                             
1001c295  ti_sysbios_hal_Hwi_switchFromBootStack__E                                 
UNDEFED   ti_sysbios_hal_Hwi_switchFromBootStack__E                                 
20003420  ti_sysbios_hal_Timer_Module__root__V                                      
00009289  ti_sysbios_hal_Timer_Module_startup__E                                    
00009185  ti_sysbios_hal_Timer_TimerProxy_Module__startupDone__S                    
00008d45  ti_sysbios_hal_Timer_TimerProxy_startup__E                                
000013b4  ti_sysbios_heaps_HeapMem_E_memory__C                                      
1001bc85  ti_sysbios_heaps_HeapMem_Handle__label__S                                 
20001120  ti_sysbios_heaps_HeapMem_Instance_State_0_buf__A                          
1001b4d1  ti_sysbios_heaps_HeapMem_Instance_init__E                                 
1001bc25  ti_sysbios_heaps_HeapMem_Module_GateProxy_Handle__label__S                
UNDEFED   ti_sysbios_heaps_HeapMem_Module_GateProxy_Handle__label__S__mangled__     
1001bab5  ti_sysbios_heaps_HeapMem_Module_GateProxy_Object__delete__S               
UNDEFED   ti_sysbios_heaps_HeapMem_Module_GateProxy_Object__delete__S__mangled__    
1001c175  ti_sysbios_heaps_HeapMem_Module_GateProxy_Params__init__S                 
UNDEFED   ti_sysbios_heaps_HeapMem_Module_GateProxy_Params__init__S__mangled__      
1001c299  ti_sysbios_heaps_HeapMem_Module_GateProxy_enter__E                        
1001c29d  ti_sysbios_heaps_HeapMem_Module_GateProxy_leave__E                        
1001c271  ti_sysbios_heaps_HeapMem_Module_GateProxy_query__E                        
UNDEFED   ti_sysbios_heaps_HeapMem_Module_GateProxy_query__E__mangled__             
000010cc  ti_sysbios_heaps_HeapMem_Module__FXNS__C                                  
000013b8  ti_sysbios_heaps_HeapMem_Module__gateObj__C                               
00001410  ti_sysbios_heaps_HeapMem_Module__id__C                                    
20003428  ti_sysbios_heaps_HeapMem_Module__root__V                                  
00001250  ti_sysbios_heaps_HeapMem_Object__DESC__C                                  
00001164  ti_sysbios_heaps_HeapMem_Object__PARAMS__C                                
000013bc  ti_sysbios_heaps_HeapMem_Object__count__C                                 
1001b841  ti_sysbios_heaps_HeapMem_Object__create__S                                
1001bca5  ti_sysbios_heaps_HeapMem_Object__delete__S                                
1001b86d  ti_sysbios_heaps_HeapMem_Object__get__S                                   
000013c0  ti_sysbios_heaps_HeapMem_Object__table__C                                 
20003430  ti_sysbios_heaps_HeapMem_Object__table__V                                 
1001a195  ti_sysbios_heaps_HeapMem_alloc__E                                         
1001a791  ti_sysbios_heaps_HeapMem_free__E                                          
1001b209  ti_sysbios_heaps_HeapMem_getStats__E                                      
1001b541  ti_sysbios_heaps_HeapMem_init__I                                          
1001c2a1  ti_sysbios_heaps_HeapMem_isBlocking__E                                    
000013c4  ti_sysbios_heaps_HeapMem_reqAlign__C                                      
1001c101  ti_sysbios_heaps_HeapMem_restore__E                                       
1001bfc9  ti_sysbios_knl_Clock_Instance_finalize__E                                 
1001b509  ti_sysbios_knl_Clock_Instance_init__E                                     
000014d4  ti_sysbios_knl_Clock_Module_State_clockQ__O                               
20003448  ti_sysbios_knl_Clock_Module__root__V                                      
20000178  ti_sysbios_knl_Clock_Module__state__V                                     
1001bcc5  ti_sysbios_knl_Clock_Module_startup__E                                    
00001270  ti_sysbios_knl_Clock_Object__DESC__C                                      
00001188  ti_sysbios_knl_Clock_Object__PARAMS__C                                    
1001bad9  ti_sysbios_knl_Clock_Object__delete__S                                    
1001bce5  ti_sysbios_knl_Clock_Object__destruct__S                                  
20003450  ti_sysbios_knl_Clock_Object__table__V                                     
1001c181  ti_sysbios_knl_Clock_Params__init__S                                      
1001c2a5  ti_sysbios_knl_Clock_TimerProxy_Module__startupDone__S                    
UNDEFED   ti_sysbios_knl_Clock_TimerProxy_Module__startupDone__S__mangled__         
1001c091  ti_sysbios_knl_Clock_TimerProxy_getCurrentTick__E                         
1001c2a9  ti_sysbios_knl_Clock_TimerProxy_getExpiredTicks__E                        
1001c0a1  ti_sysbios_knl_Clock_TimerProxy_getMaxTicks__E                            
1001c2ad  ti_sysbios_knl_Clock_TimerProxy_getPeriod__E                              
1001c0b1  ti_sysbios_knl_Clock_TimerProxy_setNextTick__E                            
1001b791  ti_sysbios_knl_Clock_TimerProxy_startup__E                                
UNDEFED   ti_sysbios_knl_Clock_TimerProxy_startup__E__mangled__                     
1001ba1d  ti_sysbios_knl_Clock_addI__E                                              
1001b575  ti_sysbios_knl_Clock_construct                                            
1001b3e9  ti_sysbios_knl_Clock_create                                               
1001c2b1  ti_sysbios_knl_Clock_delete                                               
1001c2b5  ti_sysbios_knl_Clock_destruct                                             
00009275  ti_sysbios_knl_Clock_doTick__I                                            
00008afd  ti_sysbios_knl_Clock_getTicksUntilInterrupt__E                            
1001b6d5  ti_sysbios_knl_Clock_getTicks__E                                          
1001c18d  ti_sysbios_knl_Clock_getTimerHandle__E                                    
1001be63  ti_sysbios_knl_Clock_logTick__E                                           
1001c2b9  ti_sysbios_knl_Clock_removeI__E                                           
1001beb9  ti_sysbios_knl_Clock_scheduleNextTick__E                                  
000013c8  ti_sysbios_knl_Clock_serviceMargin__C                                     
1001c2bd  ti_sysbios_knl_Clock_setTimeout__E                                        
1001a715  ti_sysbios_knl_Clock_startI__E                                            
1001bfdf  ti_sysbios_knl_Clock_start__E                                             
00008e11  ti_sysbios_knl_Clock_stop__E                                              
00001414  ti_sysbios_knl_Clock_tickMode__C                                          
00000dd0  ti_sysbios_knl_Clock_tickPeriod__C                                        
00000dd4  ti_sysbios_knl_Clock_triggerClock__C                                      
0000727f  ti_sysbios_knl_Clock_triggerFunc__I                                       
1001a809  ti_sysbios_knl_Clock_walkQueueDynamic__E                                  
0000659d  ti_sysbios_knl_Clock_workFuncDynamic__E                                   
1001a881  ti_sysbios_knl_Clock_workFunc__E                                          
20003470  ti_sysbios_knl_Event_Module__root__V                                      
00000dd8  ti_sysbios_knl_Idle_funcList__A                                           
00001378  ti_sysbios_knl_Idle_funcList__C                                           
1001c207  ti_sysbios_knl_Idle_loop__E                                               
1001bd05  ti_sysbios_knl_Idle_run__E                                                
000014d8  ti_sysbios_knl_Mailbox_Instance_State_dataQue__O                          
000014dc  ti_sysbios_knl_Mailbox_Instance_State_dataSem__O                          
000014e0  ti_sysbios_knl_Mailbox_Instance_State_freeQue__O                          
000014e4  ti_sysbios_knl_Mailbox_Instance_State_freeSem__O                          
1001a8f9  ti_sysbios_knl_Mailbox_Instance_finalize__E                               
1001a0cd  ti_sysbios_knl_Mailbox_Instance_init__E                                   
20003478  ti_sysbios_knl_Mailbox_Module__root__V                                    
1001b2d9  ti_sysbios_knl_Mailbox_Module_startup__E                                  
00001290  ti_sysbios_knl_Mailbox_Object__DESC__C                                    
0000103c  ti_sysbios_knl_Mailbox_Object__PARAMS__C                                  
000013cc  ti_sysbios_knl_Mailbox_Object__count__C                                   
1001bd25  ti_sysbios_knl_Mailbox_Object__delete__S                                  
1001bed5  ti_sysbios_knl_Mailbox_Object__destruct__S                                
1001b899  ti_sysbios_knl_Mailbox_Object__get__S                                     
000013d0  ti_sysbios_knl_Mailbox_Object__table__C                                   
1001c199  ti_sysbios_knl_Mailbox_Params__init__S                                    
1001af81  ti_sysbios_knl_Mailbox_construct                                          
1001abdd  ti_sysbios_knl_Mailbox_create                                             
1001c2c1  ti_sysbios_knl_Mailbox_delete                                             
1001c2c5  ti_sysbios_knl_Mailbox_destruct                                           
000013d4  ti_sysbios_knl_Mailbox_maxTypeAlign__C                                    
1001a969  ti_sysbios_knl_Mailbox_pend__E                                            
1001b8c5  ti_sysbios_knl_Mailbox_postInit__I                                        
1001a58d  ti_sysbios_knl_Mailbox_post__E                                            
1001c227  ti_sysbios_knl_Queue_Instance_init__E                                     
20003480  ti_sysbios_knl_Queue_Module__root__V                                      
000012b0  ti_sysbios_knl_Queue_Object__DESC__C                                      
00001360  ti_sysbios_knl_Queue_Object__PARAMS__C                                    
000013d8  ti_sysbios_knl_Queue_Object__count__C                                     
1001bd45  ti_sysbios_knl_Queue_Object__delete__S                                    
1001bef1  ti_sysbios_knl_Queue_Object__destruct__S                                  
1001bd65  ti_sysbios_knl_Queue_Object__get__S                                       
000013dc  ti_sysbios_knl_Queue_Object__table__C                                     
1001b8f1  ti_sysbios_knl_Queue_construct                                            
1001b91d  ti_sysbios_knl_Queue_create                                               
1001c2c9  ti_sysbios_knl_Queue_delete                                               
1001c1a5  ti_sysbios_knl_Queue_dequeue__E                                           
1001c2cd  ti_sysbios_knl_Queue_destruct                                             
1001c22d  ti_sysbios_knl_Queue_elemClear__E                                         
1001c10f  ti_sysbios_knl_Queue_empty__E                                             
1001c1b1  ti_sysbios_knl_Queue_enqueue__E                                           
1001bf0d  ti_sysbios_knl_Queue_get__E                                               
1001c2d1  ti_sysbios_knl_Queue_head__E                                              
1001c2d5  ti_sysbios_knl_Queue_next__E                                              
1001bf29  ti_sysbios_knl_Queue_put__E                                               
1001c11d  ti_sysbios_knl_Queue_remove__E                                            
000014e8  ti_sysbios_knl_Semaphore_Instance_State_pendQ__O                          
1001c0c1  ti_sysbios_knl_Semaphore_Instance_finalize__E                             
1001bafd  ti_sysbios_knl_Semaphore_Instance_init__E                                 
20003488  ti_sysbios_knl_Semaphore_Module__root__V                                  
000012d0  ti_sysbios_knl_Semaphore_Object__DESC__C                                  
000011ac  ti_sysbios_knl_Semaphore_Object__PARAMS__C                                
1001bb21  ti_sysbios_knl_Semaphore_Object__delete__S                                
1001bd85  ti_sysbios_knl_Semaphore_Object__destruct__S                              
1001c1bd  ti_sysbios_knl_Semaphore_Params__init__S                                  
1001b705  ti_sysbios_knl_Semaphore_construct                                        
1001b5a9  ti_sysbios_knl_Semaphore_create                                           
1001c2d9  ti_sysbios_knl_Semaphore_delete                                           
1001c2dd  ti_sysbios_knl_Semaphore_destruct                                         
1001b949  ti_sysbios_knl_Semaphore_pendTimeout__I                                   
1001a001  ti_sysbios_knl_Semaphore_pend__E                                          
1001ac41  ti_sysbios_knl_Semaphore_post__E                                          
1001bf97  ti_sysbios_knl_Swi_Instance_finalize__E                                   
1001aca5  ti_sysbios_knl_Swi_Instance_init__E                                       
20003ae0  ti_sysbios_knl_Swi_Module_State_0_readyQ__A                               
20003490  ti_sysbios_knl_Swi_Module__root__V                                        
200001c8  ti_sysbios_knl_Swi_Module__state__V                                       
1001c233  ti_sysbios_knl_Swi_Module_startup__E                                      
000012f0  ti_sysbios_knl_Swi_Object__DESC__C                                        
000010f4  ti_sysbios_knl_Swi_Object__PARAMS__C                                      
000013e0  ti_sysbios_knl_Swi_Object__count__C                                       
1001bda5  ti_sysbios_knl_Swi_Object__delete__S                                      
1001bf45  ti_sysbios_knl_Swi_Object__destruct__S                                    
1001b975  ti_sysbios_knl_Swi_Object__get__S                                         
000013e4  ti_sysbios_knl_Swi_Object__table__C                                       
20003b10  ti_sysbios_knl_Swi_Object__table__V                                       
1001c1c9  ti_sysbios_knl_Swi_Params__init__S                                        
1001b085  ti_sysbios_knl_Swi_construct                                              
1001ad05  ti_sysbios_knl_Swi_create                                                 
1001c2e1  ti_sysbios_knl_Swi_delete                                                 
1001c2e5  ti_sysbios_knl_Swi_destruct                                               
1001c0d1  ti_sysbios_knl_Swi_disable__E                                             
1001c0e1  ti_sysbios_knl_Swi_enabled__E                                             
000093b9  ti_sysbios_knl_Swi_getTrigger__E                                          
000013e8  ti_sysbios_knl_Swi_numPriorities__C                                       
0000919d  ti_sysbios_knl_Swi_or__E                                                  
1001c2e9  ti_sysbios_knl_Swi_postInit__I                                            
1001b31d  ti_sysbios_knl_Swi_post__E                                                
1001ad61  ti_sysbios_knl_Swi_restoreHwi__E                                          
1001b5dd  ti_sysbios_knl_Swi_restore__E                                             
1001b0d5  ti_sysbios_knl_Swi_runLoop__I                                             
1001afd9  ti_sysbios_knl_Swi_run__I                                                 
1001b031  ti_sysbios_knl_Swi_schedule__I                                            
1001c239  ti_sysbios_knl_Swi_startup__E                                             
20002120  ti_sysbios_knl_Task_Instance_State_0_stack__A                             
1001a4f9  ti_sysbios_knl_Task_Instance_finalize__E                                  
1001a259  ti_sysbios_knl_Task_Instance_init__E                                      
200034a0  ti_sysbios_knl_Task_Module_State_0_idleTask__A                            
20003918  ti_sysbios_knl_Task_Module_State_0_readyQ__A                              
000014ec  ti_sysbios_knl_Task_Module_State_inactiveQ__O                             
20003498  ti_sysbios_knl_Task_Module__root__V                                       
20000100  ti_sysbios_knl_Task_Module__state__V                                      
1001adbd  ti_sysbios_knl_Task_Module_startup__E                                     
00001310  ti_sysbios_knl_Task_Object__DESC__C                                       
00001000  ti_sysbios_knl_Task_Object__PARAMS__C                                     
000013ec  ti_sysbios_knl_Task_Object__count__C                                      
1001bdc5  ti_sysbios_knl_Task_Object__delete__S                                     
1001bf61  ti_sysbios_knl_Task_Object__destruct__S                                   
1001bde5  ti_sysbios_knl_Task_Object__get__S                                        
000013f0  ti_sysbios_knl_Task_Object__table__C                                      
200039d0  ti_sysbios_knl_Task_Object__table__V                                      
1001c1d5  ti_sysbios_knl_Task_Params__init__S                                       
1001c2ed  ti_sysbios_knl_Task_SupportProxy_Module__startupDone__S                   
UNDEFED   ti_sysbios_knl_Task_SupportProxy_Module__startupDone__S__mangled__        
1001c2f1  ti_sysbios_knl_Task_SupportProxy_getStackAlignment__E                     
UNDEFED   ti_sysbios_knl_Task_SupportProxy_getStackAlignment__E__mangled__          
1001c2f5  ti_sysbios_knl_Task_SupportProxy_start__E                                 
UNDEFED   ti_sysbios_knl_Task_SupportProxy_start__E__mangled__                      
1001c2f9  ti_sysbios_knl_Task_SupportProxy_swap__E                                  
UNDEFED   ti_sysbios_knl_Task_SupportProxy_swap__E__mangled__                       
000013f4  ti_sysbios_knl_Task_allBlockedFunc__C                                     
1001b361  ti_sysbios_knl_Task_allBlockedFunction__I                                 
1001b611  ti_sysbios_knl_Task_blockI__E                                             
1001b125  ti_sysbios_knl_Task_construct                                             
1001ae19  ti_sysbios_knl_Task_create                                                
000013f8  ti_sysbios_knl_Task_defaultStackHeap__C                                   
000013fc  ti_sysbios_knl_Task_defaultStackSize__C                                   
1001c2fd  ti_sysbios_knl_Task_delete                                                
1001c301  ti_sysbios_knl_Task_destruct                                              
1001c0f1  ti_sysbios_knl_Task_disable__E                                            
1001c23f  ti_sysbios_knl_Task_enable__E                                             
1001be05  ti_sysbios_knl_Task_enter__I                                              
1001b425  ti_sysbios_knl_Task_exit__E                                               
00001412  ti_sysbios_knl_Task_initStackFlag__C                                      
00001400  ti_sysbios_knl_Task_numConstructedTasks__C                                
1001a611  ti_sysbios_knl_Task_postInit__I                                           
1001b735  ti_sysbios_knl_Task_processVitalTaskFlag__I                               
1001be25  ti_sysbios_knl_Task_restoreHwi__E                                         
1001ba45  ti_sysbios_knl_Task_restore__E                                            
1001b175  ti_sysbios_knl_Task_schedule__I                                           
1001c1e1  ti_sysbios_knl_Task_self__E                                               
1001bf7d  ti_sysbios_knl_Task_sleepTimeout__I                                       
1001a9d9  ti_sysbios_knl_Task_sleep__E                                              
1001ae75  ti_sysbios_knl_Task_startCore__E                                          
1001c305  ti_sysbios_knl_Task_startup__E                                            
1001ca6d  ti_sysbios_knl_Task_swapReturn                                            
1001b9a1  ti_sysbios_knl_Task_unblockI__E                                           
1001bfb1  ti_sysbios_knl_Task_unblock__E                                            
1001b3a5  ti_sysbios_knl_Task_yield__E                                              
00001494  ti_sysbios_rom_ROM_AONRTCChannelEnable                                    
00001498  ti_sysbios_rom_ROM_AONRTCCompareValueSet                                  
0000149c  ti_sysbios_rom_ROM_AONRTCCurrentCompareValueGet                           
000014a0  ti_sysbios_rom_ROM_AONRTCEventClear                                       
000014a4  ti_sysbios_rom_ROM_ti_sysbios_family_arm_cc26xx_Timer_getCount64__E       
000014a8  ti_sysbios_rom_ROM_ti_sysbios_family_arm_cc26xx_Timer_getCurrentTick__E   
000014ac  ti_sysbios_rom_ROM_ti_sysbios_family_arm_cc26xx_Timer_getMaxTicks__E      
000014b0  ti_sysbios_rom_ROM_ti_sysbios_family_arm_cc26xx_Timer_initDevice__I       
000014b4  ti_sysbios_rom_ROM_ti_sysbios_family_arm_cc26xx_Timer_setNextTick__E      
000014b8  ti_sysbios_rom_ROM_ti_sysbios_family_arm_cc26xx_Timer_setThreshold__I     
000014bc  ti_sysbios_rom_ROM_ti_sysbios_family_arm_cc26xx_Timer_start__E            
000014c0  ti_sysbios_rom_ROM_ti_sysbios_family_arm_cc26xx_TimestampProvider_get32__E
000014c4  ti_sysbios_rom_ROM_xdc_runtime_Startup_getState__I                        
000014c8  ti_sysbios_rom_ROM_xdc_runtime_System_SupportProxy_abort__E               
000014cc  ti_sysbios_rom_ROM_xdc_runtime_System_SupportProxy_exit__E                
0000742f  ti_sysbios_rom_cortexm_cc13xx_CC13xx_badRomRevision__E                    
000091b5  ti_sysbios_rom_cortexm_cc13xx_CC13xx_checkRevision__E                     
1001ca97  ti_sysbios_rom_cortexm_cc13xx_CC13xx_getRevision__E                       
00000d44  uartCC26XXHWAttrs                                                         
200029f8  uartCC26XXObjects                                                         
200031b4  uartRxMailbox                                                             
00003dbd  uartTasks_init                                                            
200031bc  uartTxMailbox                                                             
00000db8  udmaHWAttrs                                                               
200030c4  udmaObjects                                                               
00002955  unlink                                                                    
000028c5  write                                                                     
00001428  xdc_runtime_Assert_E_assertFailed__C                                      
1001c5a5  xdc_runtime_Assert_raise__I                                               
1001c6e9  xdc_runtime_Core_assignLabel__I                                           
1001c5ed  xdc_runtime_Core_assignParams__I                                          
1001c635  xdc_runtime_Core_constructObject__I                                       
1001c401  xdc_runtime_Core_createObject__I                                          
1001c4f5  xdc_runtime_Core_deleteObject__I                                          
1001c79d  xdc_runtime_Core_destructObject__I                                        
0000142c  xdc_runtime_Error_E_memory__C                                             
1001c7b5  xdc_runtime_Error_check__E                                                
1001c83d  xdc_runtime_Error_init__E                                                 
00001430  xdc_runtime_Error_policyFxn__C                                            
1001c483  xdc_runtime_Error_policySpin__E                                           
00001490  xdc_runtime_Error_policy__C                                               
1001c765  xdc_runtime_Error_raiseX__E                                               
1001c881  xdc_runtime_Gate_enterSystem__E                                           
1001c875  xdc_runtime_Gate_leaveSystem__E                                           
00001434  xdc_runtime_IGateProvider_Interface__BASE__C                              
00001438  xdc_runtime_IHeap_Interface__BASE__C                                      
0000143c  xdc_runtime_IModule_Interface__BASE__C                                    
UNDEFED   xdc_runtime_Main_Module_GateProxy_Handle__label__S                        
UNDEFED   xdc_runtime_Main_Module_GateProxy_Object__delete__S                       
UNDEFED   xdc_runtime_Main_Module_GateProxy_query__E                                
00001440  xdc_runtime_Main_Module__diagsEnabled__C                                  
00001444  xdc_runtime_Main_Module__diagsIncluded__C                                 
00001448  xdc_runtime_Main_Module__diagsMask__C                                     
00001488  xdc_runtime_Main_Module__id__C                                            
1001bc85  xdc_runtime_Memory_HeapProxy_Handle__label__S                             
UNDEFED   xdc_runtime_Memory_HeapProxy_Handle__label__S__mangled__                  
1001bca5  xdc_runtime_Memory_HeapProxy_Object__delete__S                            
UNDEFED   xdc_runtime_Memory_HeapProxy_Object__delete__S__mangled__                 
1001c885  xdc_runtime_Memory_HeapProxy_alloc__E                                     
1001c889  xdc_runtime_Memory_HeapProxy_free__E                                      
0000148a  xdc_runtime_Memory_Module__id__C                                          
20000200  xdc_runtime_Memory_Module__state__V                                       
1001c485  xdc_runtime_Memory_alloc__E                                               
1001c849  xdc_runtime_Memory_calloc__E                                              
0000144c  xdc_runtime_Memory_defaultHeapInstance__C                                 
1001c7fd  xdc_runtime_Memory_free__E                                                
1001c855  xdc_runtime_Memory_getMaxDefaultTypeAlign__E                              
1001c781  xdc_runtime_Memory_valloc__E                                              
200001f0  xdc_runtime_Startup_Module__state__V                                      
00000001  xdc_runtime_Startup__EXECFXN__C                                           
00000001  xdc_runtime_Startup__RESETFXN__C                                          
00001450  xdc_runtime_Startup_execImpl__C                                           
1001c555  xdc_runtime_Startup_exec__E                                               
0000929b  xdc_runtime_Startup_exec__I                                               
00000da4  xdc_runtime_Startup_firstFxns__A                                          
00001418  xdc_runtime_Startup_firstFxns__C                                          
00007ab9  xdc_runtime_Startup_getState__I                                           
00001420  xdc_runtime_Startup_lastFxns__C                                           
00001454  xdc_runtime_Startup_maxPasses__C                                          
000093dd  xdc_runtime_Startup_reset__I                                              
000093e9  xdc_runtime_Startup_rtsDone__E                                            
00000d5c  xdc_runtime_Startup_sfxnRts__A                                            
00001458  xdc_runtime_Startup_sfxnRts__C                                            
00000c20  xdc_runtime_Startup_sfxnTab__A                                            
0000145c  xdc_runtime_Startup_sfxnTab__C                                            
00001460  xdc_runtime_Startup_startModsFxn__C                                       
1001c309  xdc_runtime_Startup_startMods__I                                          
00001464  xdc_runtime_SysCallback_abortFxn__C                                       
1001c80d  xdc_runtime_SysCallback_abort__E                                          
000075cf  xdc_runtime_SysCallback_defaultAbort                                      
00007bc7  xdc_runtime_SysCallback_defaultExit                                       
00001468  xdc_runtime_SysCallback_exitFxn__C                                        
1001c81d  xdc_runtime_SysCallback_exit__E                                           
00008e31  xdc_runtime_SysStd_abort__E                                               
000093f5  xdc_runtime_SysStd_exit__E                                                
00009499  xdc_runtime_SysStd_putch__E                                               
0000949d  xdc_runtime_SysStd_ready__E                                               
1001bbe5  xdc_runtime_System_Module_GateProxy_Handle__label__S                      
UNDEFED   xdc_runtime_System_Module_GateProxy_Handle__label__S__mangled__           
1001bc05  xdc_runtime_System_Module_GateProxy_Object__delete__S                     
UNDEFED   xdc_runtime_System_Module_GateProxy_Object__delete__S__mangled__          
1001c88d  xdc_runtime_System_Module_GateProxy_enter__E                              
1001c891  xdc_runtime_System_Module_GateProxy_leave__E                              
1001c265  xdc_runtime_System_Module_GateProxy_query__E                              
UNDEFED   xdc_runtime_System_Module_GateProxy_query__E__mangled__                   
200001f8  xdc_runtime_System_Module__state__V                                       
1001c87b  xdc_runtime_System_Module_startup__E                                      
00008e31  xdc_runtime_System_SupportProxy_abort__E                                  
000093f5  xdc_runtime_System_SupportProxy_exit__E                                   
00009499  xdc_runtime_System_SupportProxy_putch__E                                  
0000949d  xdc_runtime_System_SupportProxy_ready__E                                  
0000146c  xdc_runtime_System_abortFxn__C                                            
1001c895  xdc_runtime_System_abortSpin__E                                           
1001c745  xdc_runtime_System_abort__E                                               
1001c67d  xdc_runtime_System_atexit__E                                              
0000258d  xdc_runtime_System_doPrint__I                                             
00001470  xdc_runtime_System_exitFxn__C                                             
1001c897  xdc_runtime_System_exitSpin__E                                            
1001c7cd  xdc_runtime_System_exit__E                                                
00000ddc  xdc_runtime_System_extendFxn__C                                           
00007211  xdc_runtime_System_formatNum__I                                           
00001474  xdc_runtime_System_maxAtexitHandlers__C                                   
000040e1  xdc_runtime_System_printfExtend__I                                        
00008fa1  xdc_runtime_System_printf__E                                              
000094a1  xdc_runtime_System_printf_va__F                                           
1001c6b5  xdc_runtime_System_processAtExit__E                                       
00008b53  xdc_runtime_System_putchar__I                                             
00008d69  xdc_runtime_System_vprintf__E                                             
0000148c  xdc_runtime_Text_charCnt__C                                               
00000a7d  xdc_runtime_Text_charTab__A                                               
00001478  xdc_runtime_Text_charTab__C                                               
1001c719  xdc_runtime_Text_cordText__E                                              
0000148e  xdc_runtime_Text_isLoaded__C                                              
0000147c  xdc_runtime_Text_nameEmpty__C                                             
00001480  xdc_runtime_Text_nameStatic__C                                            
00001484  xdc_runtime_Text_nameUnknown__C                                           
1001c7e5  xdc_runtime_Text_ropeText__E                                              
1001c82d  xdc_runtime_Timestamp_SupportProxy_get32__E                               
00009355  xdc_runtime_Timestamp_SupportProxy_get32__E__mangled__                    
1001b9cd  xdc_runtime_Timestamp_SupportProxy_get64__E                               
UNDEFED   xdc_runtime_Timestamp_SupportProxy_get64__E__mangled__                    
1001c12b  xdc_runtime_Timestamp_SupportProxy_getFreq__E                             
UNDEFED   xdc_runtime_Timestamp_SupportProxy_getFreq__E__mangled__                  
1001c82d  xdc_runtime_Timestamp_get32__E                                            
UNDEFED   xdc_runtime_Timestamp_get32__E                                            
1001b9cd  xdc_runtime_Timestamp_get64__E                                            
UNDEFED   xdc_runtime_Timestamp_get64__E                                            
1001c12b  xdc_runtime_Timestamp_getFreq__E                                          
UNDEFED   xdc_runtime_Timestamp_getFreq__E                                          


GLOBAL SYMBOLS: SORTED BY Symbol Address 

address   name                                                                      
-------   ----                                                                      
00000000  __ASM__                                                                   
00000000  __FLASH_ADDR                                                              
00000000  ti_sysbios_family_arm_m3_Hwi_resetVectors                                 
00000001  xdc_runtime_Startup__EXECFXN__C                                           
00000001  xdc_runtime_Startup__RESETFXN__C                                          
00000065  __ISA__                                                                   
00000077  __PLAT__                                                                  
0000009e  __TARG__                                                                  
000000c3  __TRDR__                                                                  
00000300  __STACK_SIZE                                                              
0000097c  _ctypes_                                                                  
00000a7d  xdc_runtime_Text_charTab__A                                               
00000a7e  ti_sysbios_family_arm_m3_Timer_Module__id__C                              
00000a80  SPICC26XXDMA_fxnTable                                                     
00000ad4  resourceDB                                                                
00000b68  BoardGpioInitTable                                                        
00000be8  spiCC26XXDMAHWAttrs                                                       
00000c20  xdc_runtime_Startup_sfxnTab__A                                            
00000c4c  UARTCC26XX_fxnTable                                                       
00000c74  SPI_config                                                                
00000c98  UART_defaultParams                                                        
00000cbc  I2CCC26XX_fxnTable                                                        
00000cdc  SPI_defaultParams                                                         
00000cfc  I2C_config                                                                
00000d14  UART_config                                                               
00000d2c  i2cCC26xxHWAttrs                                                          
00000d44  uartCC26XXHWAttrs                                                         
00000d5c  xdc_runtime_Startup_sfxnRts__A                                            
00000d74  PowerCC26XX_config                                                        
00000d84  UDMACC26XX_config                                                         
00000d94  I2C_defaultParams                                                         
00000da4  xdc_runtime_Startup_firstFxns__A                                          
00000db0  PINCC26XX_hwAttrs                                                         
00000db8  udmaHWAttrs                                                               
00000dc8  ti_sysbios_family_arm_m3_Timer_E_cannotSupport__C                         
00000dcc  ti_sysbios_family_arm_m3_Timer_startupNeeded__C                           
00000dd0  ti_sysbios_knl_Clock_tickPeriod__C                                        
00000dd4  ti_sysbios_knl_Clock_triggerClock__C                                      
00000dd8  ti_sysbios_knl_Idle_funcList__A                                           
00000ddc  xdc_runtime_System_extendFxn__C                                           
00001000  __FLASH_DATA_SIZE                                                         
00001000  ti_sysbios_knl_Task_Object__PARAMS__C                                     
0000103c  ti_sysbios_knl_Mailbox_Object__PARAMS__C                                  
00001070  ti_sysbios_family_arm_m3_Hwi_Object__PARAMS__C                            
000010a0  ti_sysbios_hal_Hwi_Object__PARAMS__C                                      
000010cc  ti_sysbios_heaps_HeapMem_Module__FXNS__C                                  
000010f4  ti_sysbios_knl_Swi_Object__PARAMS__C                                      
0000111c  ti_sysbios_gates_GateHwi_Module__FXNS__C                                  
00001140  ti_sysbios_gates_GateMutex_Module__FXNS__C                                
00001164  ti_sysbios_heaps_HeapMem_Object__PARAMS__C                                
00001188  ti_sysbios_knl_Clock_Object__PARAMS__C                                    
000011ac  ti_sysbios_knl_Semaphore_Object__PARAMS__C                                
000011d0  ti_sysbios_family_arm_m3_Hwi_Object__DESC__C                              
000011f0  ti_sysbios_gates_GateHwi_Object__DESC__C                                  
00001210  ti_sysbios_gates_GateMutex_Object__DESC__C                                
00001230  ti_sysbios_hal_Hwi_Object__DESC__C                                        
00001250  ti_sysbios_heaps_HeapMem_Object__DESC__C                                  
00001270  ti_sysbios_knl_Clock_Object__DESC__C                                      
00001290  ti_sysbios_knl_Mailbox_Object__DESC__C                                    
000012b0  ti_sysbios_knl_Queue_Object__DESC__C                                      
000012d0  ti_sysbios_knl_Semaphore_Object__DESC__C                                  
000012f0  ti_sysbios_knl_Swi_Object__DESC__C                                        
00001310  ti_sysbios_knl_Task_Object__DESC__C                                       
00001330  ti_sysbios_gates_GateHwi_Object__PARAMS__C                                
00001348  ti_sysbios_gates_GateMutex_Object__PARAMS__C                              
00001360  ti_sysbios_knl_Queue_Object__PARAMS__C                                    
00001378  ti_sysbios_knl_Idle_funcList__C                                           
00001384  ti_sysbios_family_arm_cc26xx_Timer_startupNeeded__C                       
00001388  ti_sysbios_family_arm_m3_Hwi_E_alreadyDefined__C                          
0000138c  ti_sysbios_family_arm_m3_Hwi_E_hwiLimitExceeded__C                        
00001390  ti_sysbios_family_arm_m3_Hwi_NUM_INTERRUPTS__C                            
00001394  ti_sysbios_family_arm_m3_Hwi_Object__count__C                             
00001398  ti_sysbios_family_arm_m3_Hwi_Object__table__C                             
0000139c  ti_sysbios_family_arm_m3_Hwi_ccr__C                                       
000013a0  ti_sysbios_family_arm_m3_Hwi_excHandlerFunc__C                            
000013a4  ti_sysbios_family_arm_m3_Hwi_nullIsrFunc__C                               
000013a8  ti_sysbios_family_arm_m3_Hwi_numSparseInterrupts__C                       
000013ac  ti_sysbios_family_arm_m3_Hwi_priGroup__C                                  
000013b0  ti_sysbios_family_arm_m3_TaskSupport_stackAlignment__C                    
000013b4  ti_sysbios_heaps_HeapMem_E_memory__C                                      
000013b8  ti_sysbios_heaps_HeapMem_Module__gateObj__C                               
000013bc  ti_sysbios_heaps_HeapMem_Object__count__C                                 
000013c0  ti_sysbios_heaps_HeapMem_Object__table__C                                 
000013c4  ti_sysbios_heaps_HeapMem_reqAlign__C                                      
000013c8  ti_sysbios_knl_Clock_serviceMargin__C                                     
000013cc  ti_sysbios_knl_Mailbox_Object__count__C                                   
000013d0  ti_sysbios_knl_Mailbox_Object__table__C                                   
000013d4  ti_sysbios_knl_Mailbox_maxTypeAlign__C                                    
000013d8  ti_sysbios_knl_Queue_Object__count__C                                     
000013dc  ti_sysbios_knl_Queue_Object__table__C                                     
000013e0  ti_sysbios_knl_Swi_Object__count__C                                       
000013e4  ti_sysbios_knl_Swi_Object__table__C                                       
000013e8  ti_sysbios_knl_Swi_numPriorities__C                                       
000013ec  ti_sysbios_knl_Task_Object__count__C                                      
000013f0  ti_sysbios_knl_Task_Object__table__C                                      
000013f4  ti_sysbios_knl_Task_allBlockedFunc__C                                     
000013f8  ti_sysbios_knl_Task_defaultStackHeap__C                                   
000013fc  ti_sysbios_knl_Task_defaultStackSize__C                                   
00001400  ti_sysbios_knl_Task_numConstructedTasks__C                                
00001406  ti_sysbios_family_arm_cc26xx_Timer_Module__id__C                          
00001408  ti_sysbios_family_arm_cc26xx_TimestampProvider_useClockTimer__C           
0000140a  ti_sysbios_family_arm_m3_Hwi_Module__id__C                                
0000140c  ti_sysbios_gates_GateHwi_Module__id__C                                    
0000140e  ti_sysbios_gates_GateMutex_Module__id__C                                  
00001410  ti_sysbios_heaps_HeapMem_Module__id__C                                    
00001412  ti_sysbios_knl_Task_initStackFlag__C                                      
00001414  ti_sysbios_knl_Clock_tickMode__C                                          
00001418  xdc_runtime_Startup_firstFxns__C                                          
00001420  xdc_runtime_Startup_lastFxns__C                                           
00001428  xdc_runtime_Assert_E_assertFailed__C                                      
0000142c  xdc_runtime_Error_E_memory__C                                             
00001430  xdc_runtime_Error_policyFxn__C                                            
00001434  xdc_runtime_IGateProvider_Interface__BASE__C                              
00001438  xdc_runtime_IHeap_Interface__BASE__C                                      
0000143c  xdc_runtime_IModule_Interface__BASE__C                                    
00001440  xdc_runtime_Main_Module__diagsEnabled__C                                  
00001444  xdc_runtime_Main_Module__diagsIncluded__C                                 
00001448  xdc_runtime_Main_Module__diagsMask__C                                     
0000144c  xdc_runtime_Memory_defaultHeapInstance__C                                 
00001450  xdc_runtime_Startup_execImpl__C                                           
00001454  xdc_runtime_Startup_maxPasses__C                                          
00001458  xdc_runtime_Startup_sfxnRts__C                                            
0000145c  xdc_runtime_Startup_sfxnTab__C                                            
00001460  xdc_runtime_Startup_startModsFxn__C                                       
00001464  xdc_runtime_SysCallback_abortFxn__C                                       
00001468  xdc_runtime_SysCallback_exitFxn__C                                        
0000146c  xdc_runtime_System_abortFxn__C                                            
00001470  xdc_runtime_System_exitFxn__C                                             
00001474  xdc_runtime_System_maxAtexitHandlers__C                                   
00001478  xdc_runtime_Text_charTab__C                                               
0000147c  xdc_runtime_Text_nameEmpty__C                                             
00001480  xdc_runtime_Text_nameStatic__C                                            
00001484  xdc_runtime_Text_nameUnknown__C                                           
00001488  xdc_runtime_Main_Module__id__C                                            
0000148a  xdc_runtime_Memory_Module__id__C                                          
0000148c  xdc_runtime_Text_charCnt__C                                               
0000148e  xdc_runtime_Text_isLoaded__C                                              
00001490  xdc_runtime_Error_policy__C                                               
00001494  ti_sysbios_rom_ROM_AONRTCChannelEnable                                    
00001498  ti_sysbios_rom_ROM_AONRTCCompareValueSet                                  
0000149c  ti_sysbios_rom_ROM_AONRTCCurrentCompareValueGet                           
000014a0  ti_sysbios_rom_ROM_AONRTCEventClear                                       
000014a4  ti_sysbios_rom_ROM_ti_sysbios_family_arm_cc26xx_Timer_getCount64__E       
000014a8  ti_sysbios_rom_ROM_ti_sysbios_family_arm_cc26xx_Timer_getCurrentTick__E   
000014ac  ti_sysbios_rom_ROM_ti_sysbios_family_arm_cc26xx_Timer_getMaxTicks__E      
000014b0  ti_sysbios_rom_ROM_ti_sysbios_family_arm_cc26xx_Timer_initDevice__I       
000014b4  ti_sysbios_rom_ROM_ti_sysbios_family_arm_cc26xx_Timer_setNextTick__E      
000014b8  ti_sysbios_rom_ROM_ti_sysbios_family_arm_cc26xx_Timer_setThreshold__I     
000014bc  ti_sysbios_rom_ROM_ti_sysbios_family_arm_cc26xx_Timer_start__E            
000014c0  ti_sysbios_rom_ROM_ti_sysbios_family_arm_cc26xx_TimestampProvider_get32__E
000014c4  ti_sysbios_rom_ROM_xdc_runtime_Startup_getState__I                        
000014c8  ti_sysbios_rom_ROM_xdc_runtime_System_SupportProxy_abort__E               
000014cc  ti_sysbios_rom_ROM_xdc_runtime_System_SupportProxy_exit__E                
000014d0  ti_sysbios_gates_GateMutex_Instance_State_sem__O                          
000014d4  ti_sysbios_knl_Clock_Module_State_clockQ__O                               
000014d8  ti_sysbios_knl_Mailbox_Instance_State_dataQue__O                          
000014dc  ti_sysbios_knl_Mailbox_Instance_State_dataSem__O                          
000014e0  ti_sysbios_knl_Mailbox_Instance_State_freeQue__O                          
000014e4  ti_sysbios_knl_Mailbox_Instance_State_freeSem__O                          
000014e8  ti_sysbios_knl_Semaphore_Instance_State_pendQ__O                          
000014ec  ti_sysbios_knl_Task_Module_State_inactiveQ__O                             
00002285  __TI_printfi                                                              
0000258d  xdc_runtime_System_doPrint__I                                             
000028c5  write                                                                     
00002955  remove                                                                    
00002955  unlink                                                                    
00002979  rename                                                                    
000029b7  remove_device                                                             
000029df  read                                                                      
00002a03  open                                                                      
00002ab1  lseek                                                                     
00002ad5  close                                                                     
00002b25  add_device                                                                
00002bd1  HOSTwrite                                                                 
00002c1d  HOSTunlink                                                                
00002c55  HOSTtime                                                                  
00002c8f  HOSTrename                                                                
00002ced  HOSTread                                                                  
00002d39  HOSTopen                                                                  
00002d8b  HOSTlseek                                                                 
00002de7  HOSTgetenv                                                                
00002e25  HOSTclose                                                                 
00002e5d  HOSTclock                                                                 
00002ea5  NOROM_SysCtrlSetRechargeBeforePowerDown                                   
000030d5  Power_sleep                                                               
000032fd  __aeabi_uldivmod                                                          
000036dd  PIN_init                                                                  
00003969  __TI_cleanup                                                              
00003995  freopen                                                                   
000039bf  fopen                                                                     
00003a65  __aeabi_dsub                                                              
00003a6f  __aeabi_dadd                                                              
00003c1d  PowerCC26XX_doCalibrate                                                   
00003dbd  uartTasks_init                                                            
00003f51  UARTCC26XX_open                                                           
000040e1  xdc_runtime_System_printfExtend__I                                        
000043a9  leds_init                                                                 
000044f9  SPICC26XXDMA_open                                                         
00004641  __aeabi_ddiv                                                              
00004777  __aeabi_idiv0                                                             
00004779  NOROM_SetupAfterColdResetWakeupFromShutDownCfg3                           
000048a9  Power_init                                                                
00004af9  _Dscale                                                                   
00004c09  UARTCC26XX_write                                                          
00004d05  __aeabi_dmul                                                              
00004e01  I2CCC26XX_open                                                            
00004ef9  radioSetup_init                                                           
00004ff1  NOROM_SetupAfterColdResetWakeupFromShutDownCfg2                           
000050dd  SPICC26XXDMA_transferCancel                                               
000051c9  UARTCC26XX_hwiIntFxn                                                      
0000539d  setvbuf                                                                   
00005555  Power_releaseDependency                                                   
000056fd  Power_setDependency                                                       
00005961  __TI_doflush                                                              
000059ad  fflush                                                                    
00005a29  SPICC26XXDMA_transfer                                                     
00005aed  I2CCC26XX_transfer                                                        
00005baf  _Dnorm                                                                    
00005c6d  PowerCC26XX_standbyPolicy                                                 
00005d29  UARTCC26XX_read                                                           
00005de5  receive_init                                                              
00005f59  __TI_wrt_ok                                                               
00005fbb  __TI_rd_ok                                                                
00006005  NOROM_SetupTrimDevice                                                     
00006005  ti_sysbios_family_arm_cc26xx_Boot_trimDevice                              
000060a9  i2cSensorsInit                                                            
000061ef  ti_sysbios_BIOS_linkedWithIncorrectBootLibrary__E                         
000061f1  NOROM_SetupAfterColdResetWakeupFromShutDownCfg1                           
00006291  __TI_auto_init                                                            
000063d1  __aeabi_memcpy                                                            
000063d1  __aeabi_memcpy4                                                           
000063d1  __aeabi_memcpy8                                                           
000063d1  memcpy                                                                    
0000646d  __TI_closefile                                                            
000064d3  fclose                                                                    
00006505  fputc                                                                     
00006505  putc                                                                      
00006589  putchar                                                                   
0000659d  ti_sysbios_knl_Clock_workFuncDynamic__E                                   
00006635  PIN_open                                                                  
000067f1  I2CCC26XX_cancel                                                          
0000699d  RFQueue_defineQueue                                                       
00006a29  SPICC26XXDMA_control                                                      
00006b41  UARTCC26XX_writeCancel                                                    
00006ce1  __aeabi_cdcmpeq                                                           
00006ce1  __aeabi_cdcmple                                                           
00006d67  __aeabi_cdrcmple                                                          
00006ded  main                                                                      
00006ee5  __aeabi_memclr                                                            
00006ee5  __aeabi_memclr4                                                           
00006ee5  __aeabi_memclr8                                                           
00006ee7  __aeabi_memset                                                            
00006ee7  __aeabi_memset4                                                           
00006ee7  __aeabi_memset8                                                           
00006eed  memset                                                                    
00006f5f  ti_sysbios_BIOS_nullFunc__I                                               
00006f61  UARTCC26XX_close                                                          
00006fd9  PowerCC26XX_auxISR                                                        
000070c1  NOROM_ChipInfo_GetHwRevision                                              
00007131  NOROM_SetupSetVddrLevel                                                   
000071a1  UARTCC26XX_readCancel                                                     
00007211  xdc_runtime_System_formatNum__I                                           
0000727f  ti_sysbios_knl_Clock_triggerFunc__I                                       
00007281  NOROM_SetupGetTrimForAmpcompCtrl                                          
000072ed  PIN_add                                                                   
00007359  PowerCC26XX_calibrate                                                     
0000742f  ti_sysbios_rom_cortexm_cc13xx_CC13xx_badRomRevision__E                    
00007431  NOROM_SetupGetTrimForAnabypassValue1                                      
00007499  NOROM_SysCtrl_DCDC_VoltageConditionalControl                              
00007501  __TI_writemsg                                                             
0000752f  C$$IO$$                                                                   
00007533  __TI_readmsg                                                              
00007569  _Dunscale                                                                 
000075cf  xdc_runtime_SysCallback_defaultAbort                                      
000075d1  I2CCC26XX_close                                                           
00007699  NOROM_OSCHF_AttemptToSwitchToXosc                                         
000076fd  fseek                                                                     
00007761  ti_sysbios_family_arm_cc26xx_Timer_start__E                               
000077c5  NOROM_OSCClockSourceSet                                                   
00007825  PowerCC26XX_RCOSC_clockFunc                                               
000078e5  sprintf                                                                   
000079a5  NOROM_SysCtrlAdjustRechargeAfterPowerDown                                 
00007a01  PIN_remove                                                                
00007a5d  UDMACC26XX_open                                                           
00007ab9  xdc_runtime_Startup_getState__I                                           
00007b15  SPICC26XXDMA_close                                                        
00007bc7  xdc_runtime_SysCallback_defaultExit                                       
00007bc9  PowerCC26XX_initiateCalibration                                           
00007c21  UARTCC26XX_control                                                        
00007c79  ltoa                                                                      
00007d79  NOROM_SetupSetCacheModeAccordingToCcfgSetting                             
00007e19  UARTCC26XX_swiIntFxn                                                      
00007e65  atoi                                                                      
00007eb1  copy_in                                                                   
00007f91  NOROM_ChipInfo_GetChipFamily                                              
00007fd9  PIN_setOutputEnable                                                       
000080b1  __aeabi_d2iz                                                              
000080f9  ti_sysbios_family_arm_m3_Timer_setPeriod__E                               
00008141  ldexp                                                                     
00008189  ResetISR                                                                  
00008189  _c_int00                                                                  
000081cd  __aeabi_d2uiz                                                             
00008211  testTask_init                                                             
00008255  ti_sysbios_family_arm_m3_Timer_start__E                                   
00008299  signal                                                                    
000082d9  __aeabi_uidiv                                                             
000082d9  __aeabi_uidivmod                                                          
00008319  NOROM_OSC_HPOSCRelativeFrequencyOffsetGet                                 
00008355  PINCC26XX_getConfig                                                       
00008391  PIN_setOutputValue                                                        
00008481  PIN_setInterrupt                                                          
000084b9  SPI_init                                                                  
000084f1  UART_init                                                                 
00008529  buffers_init                                                              
00008599  __aeabi_f2d                                                               
000085d1  ti_sysbios_family_arm_cc26xx_Timer_getCurrentTick__E                      
00008641  UDMACC26XX_close                                                          
00008679  NOROM_OSCHF_SwitchToRcOscTurnOffXosc                                      
000086ad  PIN_setConfig                                                             
000086e1  feraiseexcept                                                             
00008715  ti_sysbios_BIOS_startFunc__I                                              
00008749  ti_sysbios_family_arm_m3_Timer_initDevice__I                              
0000877d  ti_sysbios_family_arm_cc26xx_Timer_setNextTick__E                         
000087b1  I2C_open                                                                  
000087e1  NOROM_SetupSetAonRtcSubSecInc                                             
00008811  Power_releaseConstraint                                                   
00008841  Power_setConstraint                                                       
00008871  SPI_open                                                                  
000088a1  UART_open                                                                 
000088d1  strncpy                                                                   
00008901  _Feraise                                                                  
00008931  ti_sysbios_BIOS_atExitFunc__I                                             
00008961  ti_sysbios_family_arm_cc26xx_Timer_initDevice__I                          
00008991  ti_sysbios_family_arm_cc26xx_Timer_setThreshold__I                        
000089c1  malloc                                                                    
000089ef  __aeabi_i2d                                                               
00008a1d  raise                                                                     
00008a4d  NOROM_DDI32RegWrite                                                       
00008a79  NOROM_OSCClockSourceGet                                                   
00008aa5  NOROM_SetupGetTrimForRadcExtCfg                                           
00008ad1  PINCC26XX_setMux                                                          
00008afd  ti_sysbios_knl_Clock_getTicksUntilInterrupt__E                            
00008b29  _Dclass                                                                   
00008b53  xdc_runtime_System_putchar__I                                             
00008b7d  NOROM_AONBatMonTemperatureGetDegC                                         
00008ba5  Power_registerNotify                                                      
00008bf5  SafeHapiVoid                                                              
00008c1d  ti_sysbios_family_arm_cc26xx_Timer_getMaxTicks__E                         
00008c45  List_put                                                                  
00008c6d  PINCC26XX_getPinCount                                                     
00008cb5  ti_sysbios_BIOS_registerRTSLock__I                                        
00008cd9  ti_sysbios_BIOS_removeRTSLock__I                                          
00008cfd  ti_sysbios_family_arm_m3_Timer_Module_startup__E                          
00008d21  ti_sysbios_family_arm_m3_Timer_postInit__I                                
00008d45  ti_sysbios_family_arm_m3_Timer_startup__E                                 
00008d45  ti_sysbios_hal_Timer_TimerProxy_startup__E                                
00008d69  xdc_runtime_System_vprintf__E                                             
00008d8d  frexp                                                                     
00008db1  NOROM_SetupGetTrimForXoscHfCtl                                            
00008dd1  Power_unregisterNotify                                                    
00008df1  ti_sysbios_BIOS_rtsLock__I                                                
00008e11  ti_sysbios_knl_Clock_stop__E                                              
00008e31  xdc_runtime_SysStd_abort__E                                               
00008e31  xdc_runtime_System_SupportProxy_abort__E                                  
00008e51  PIN_close                                                                 
00008e6f  Power_getTransitionLatency                                                
00008e8d  NOROM_SetupGetTrimForAmpcompTh2                                           
00008ea9  NOROM_SetupGetTrimForRcOscLfRtuneCtuneTrim                                
00008f19  ti_sysbios_family_arm_cc26xx_Timer_dynamicStub__E                         
00008f35  ti_sysbios_family_arm_m3_Hwi_clearInterrupt__E                            
00008f35  ti_sysbios_hal_Hwi_HwiProxy_clearInterrupt__E                             
00008f35  ti_sysbios_hal_Hwi_clearInterrupt__E                                      
00008f51  ti_sysbios_family_arm_m3_Timer_stop__E                                    
00008f6d  List_remove                                                               
00008f87  memccpy                                                                   
00008fa1  xdc_runtime_System_printf__E                                              
00008fbd  NOROM_AONRTCCurrentCompareValueGet                                        
00008fd5  NOROM_ChipInfo_GetPackageType                                             
00008fed  NOROM_OSCHF_TurnOnXosc                                                    
00009005  NOROM_SetupGetTrimForAdcShModeEn                                          
0000901d  NOROM_SetupGetTrimForAdcShVbufEn                                          
00009035  NOROM_SetupGetTrimForAmpcompTh1                                           
0000904d  NOROM_SetupGetTrimForDblrLoopFilterResetVoltage                           
00009065  NOROM_SetupGetTrimForRcOscLfIBiasTrim                                     
0000907d  NOROM_SetupGetTrimForXoscLfRegulatorAndCmirrwrRatio                       
00009095  PIN_getConfig                                                             
000090ad  Power_idleFunc                                                            
000090c5  UARTCC26XX_init                                                           
000090dd  UART_Params_init                                                          
0000910d  free                                                                      
00009125  _args_main                                                                
0000913d  __aeabi_lmul                                                              
00009155  strcmp                                                                    
0000916d  ti_sysbios_BIOS_rtsUnlock__I                                              
00009185  ti_sysbios_family_arm_m3_Timer_Module__startupDone__F                     
00009185  ti_sysbios_family_arm_m3_Timer_Module__startupDone__S                     
00009185  ti_sysbios_hal_Timer_TimerProxy_Module__startupDone__S                    
0000919d  ti_sysbios_knl_Swi_or__E                                                  
000091b5  ti_sysbios_rom_cortexm_cc13xx_CC13xx_checkRevision__E                     
000091cd  NOROM_ThisCodeIsBuiltForCC13xxHwRev20AndLater_HaltIfViolated              
000091e3  strchr                                                                    
000091f9  strcpy                                                                    
0000920f  ti_sysbios_BIOS_exitFunc__I                                               
00009225  NOROM_AONRTCCurrent64BitValueGet                                          
00009239  SPI_Params_init                                                           
0000924d  _register_unlock                                                          
00009253  _register_lock                                                            
0000925b  _nop                                                                      
00009261  strlen                                                                    
00009275  ti_sysbios_knl_Clock_doTick__I                                            
00009289  ti_sysbios_hal_Timer_Module_startup__E                                    
0000929b  xdc_runtime_Startup_exec__I                                               
000092ad  I2C_Params_init                                                           
000092bd  NOROM_SetupGetTrimForXoscHfFastStart                                      
000092cd  NOROM_SetupGetTrimForXoscHfIbiastherm                                     
0000931d  NOROM_SetupSignExtendVddrTrimValue                                        
0000932b  NOROM_VIMSModeGet                                                         
00009339  SPICC26XXDMA_init                                                         
00009347  __TI_decompress_none                                                      
00009355  ti_sysbios_family_arm_cc26xx_TimestampProvider_get32__E                   
00009355  xdc_runtime_Timestamp_SupportProxy_get32__E__mangled__                    
00009363  NOROM_CPUcpsid                                                            
0000936f  NOROM_CPUcpsie                                                            
0000937b  PIN_registerIntCb                                                         
00009389  Power_getConstraintMask                                                   
00009395  Power_getDependencyCount                                                  
000093a1  __TI_zero_init                                                            
000093b9  ti_sysbios_knl_Swi_getTrigger__E                                          
000093dd  xdc_runtime_Startup_reset__I                                              
000093e9  xdc_runtime_Startup_rtsDone__E                                            
000093f5  xdc_runtime_SysStd_exit__E                                                
000093f5  xdc_runtime_System_SupportProxy_exit__E                                   
00009401  I2CCC26XX_init                                                            
0000940b  List_empty                                                                
00009415  SPI_transfer                                                              
0000941f  UART_read                                                                 
00009429  UART_write                                                                
00009433  UDMACC26XX_hwiIntFxn                                                      
0000945d  I2CCC26XX_control                                                         
00009463  NOROM_CPUdelay                                                            
00009469  UARTCC26XX_readPolling                                                    
0000946f  UARTCC26XX_writePolling                                                   
00009475  __xdc__init                                                               
0000947b  __TI_decompress_rle24                                                     
00009481  HwiP_disable                                                              
00009485  List_head                                                                 
00009489  List_next                                                                 
00009495  ti_sysbios_family_arm_cc26xx_Timer_getCount64__E                          
00009499  xdc_runtime_SysStd_putch__E                                               
00009499  xdc_runtime_System_SupportProxy_putch__E                                  
0000949d  xdc_runtime_SysStd_ready__E                                               
0000949d  xdc_runtime_System_SupportProxy_ready__E                                  
000094a1  xdc_runtime_System_printf_va__F                                           
00009658  __TI_static_base__                                                        
00009aa8  __TI_Handler_Table_Base                                                   
00009ab4  __TI_Handler_Table_Limit                                                  
00009b28  __TI_CINIT_Base                                                           
00009bb0  __TI_CINIT_Limit                                                          
0001e000  __FLASH_DATA_ADDR                                                         
0001ffa8  __ccfg                                                                    
00020000  __FLASH_SIZE                                                              
1001a001  ti_sysbios_knl_Semaphore_pend__E                                          
1001a0cd  ti_sysbios_knl_Mailbox_Instance_init__E                                   
1001a195  ti_sysbios_heaps_HeapMem_alloc__E                                         
1001a259  ti_sysbios_knl_Task_Instance_init__E                                      
1001a315  ti_sysbios_family_arm_m3_Hwi_postInit__I                                  
1001a3c5  ti_sysbios_family_arm_m3_Hwi_Instance_init__E                             
1001a465  ti_sysbios_family_arm_cc26xx_Timer_periodicStub__E                        
1001a4f9  ti_sysbios_knl_Task_Instance_finalize__E                                  
1001a58d  ti_sysbios_knl_Mailbox_post__E                                            
1001a611  ti_sysbios_knl_Task_postInit__I                                           
1001a695  ti_sysbios_family_arm_m3_Hwi_initNVIC__E                                  
1001a715  ti_sysbios_knl_Clock_startI__E                                            
1001a791  ti_sysbios_heaps_HeapMem_free__E                                          
1001a809  ti_sysbios_knl_Clock_walkQueueDynamic__E                                  
1001a881  ti_sysbios_knl_Clock_workFunc__E                                          
1001a8f9  ti_sysbios_knl_Mailbox_Instance_finalize__E                               
1001a969  ti_sysbios_knl_Mailbox_pend__E                                            
1001a9d9  ti_sysbios_knl_Task_sleep__E                                              
1001aa49  ti_sysbios_family_arm_m3_Hwi_dispatchC__I                                 
1001aab1  ti_sysbios_family_arm_m3_Hwi_Object__create__S                            
1001ab15  ti_sysbios_family_arm_m3_Hwi_create                                       
1001ab79  ti_sysbios_hal_Hwi_create                                                 
1001abdd  ti_sysbios_knl_Mailbox_create                                             
1001ac41  ti_sysbios_knl_Semaphore_post__E                                          
1001aca5  ti_sysbios_knl_Swi_Instance_init__E                                       
1001ad05  ti_sysbios_knl_Swi_create                                                 
1001ad61  ti_sysbios_knl_Swi_restoreHwi__E                                          
1001adbd  ti_sysbios_knl_Task_Module_startup__E                                     
1001ae19  ti_sysbios_knl_Task_create                                                
1001ae75  ti_sysbios_knl_Task_startCore__E                                          
1001aed1  ti_sysbios_family_arm_m3_Hwi_Instance_finalize__E                         
1001af29  ti_sysbios_family_arm_m3_Hwi_construct                                    
1001af81  ti_sysbios_knl_Mailbox_construct                                          
1001afd9  ti_sysbios_knl_Swi_run__I                                                 
1001b031  ti_sysbios_knl_Swi_schedule__I                                            
1001b085  ti_sysbios_knl_Swi_construct                                              
1001b0d5  ti_sysbios_knl_Swi_runLoop__I                                             
1001b125  ti_sysbios_knl_Task_construct                                             
1001b175  ti_sysbios_knl_Task_schedule__I                                           
1001b1c1  ti_sysbios_family_arm_m3_Hwi_Module_startup__E                            
1001b209  ti_sysbios_heaps_HeapMem_getStats__E                                      
1001b251  ti_sysbios_family_arm_m3_Hwi_disableInterrupt__E                          
1001b295  ti_sysbios_family_arm_m3_Hwi_enableInterrupt__E                           
1001b2d9  ti_sysbios_knl_Mailbox_Module_startup__E                                  
1001b31d  ti_sysbios_knl_Swi_post__E                                                
1001b361  ti_sysbios_knl_Task_allBlockedFunction__I                                 
1001b3a5  ti_sysbios_knl_Task_yield__E                                              
1001b3e9  ti_sysbios_knl_Clock_create                                               
1001b425  ti_sysbios_knl_Task_exit__E                                               
1001b45f  ti_sysbios_gates_GateHwi_Instance_init__E                                 
1001b461  ti_sysbios_family_arm_m3_Hwi_getStackInfo__E                              
1001b499  ti_sysbios_family_arm_m3_TaskSupport_start__E                             
1001b4d1  ti_sysbios_heaps_HeapMem_Instance_init__E                                 
1001b509  ti_sysbios_knl_Clock_Instance_init__E                                     
1001b541  ti_sysbios_heaps_HeapMem_init__I                                          
1001b575  ti_sysbios_knl_Clock_construct                                            
1001b5a9  ti_sysbios_knl_Semaphore_create                                           
1001b5dd  ti_sysbios_knl_Swi_restore__E                                             
1001b611  ti_sysbios_knl_Task_blockI__E                                             
1001b645  ti_sysbios_gates_GateMutex_Object__create__S                              
1001b675  ti_sysbios_gates_GateMutex_create                                         
1001b6a5  ti_sysbios_gates_GateMutex_enter__E                                       
1001b6d5  ti_sysbios_knl_Clock_getTicks__E                                          
1001b705  ti_sysbios_knl_Semaphore_construct                                        
1001b735  ti_sysbios_knl_Task_processVitalTaskFlag__I                               
1001b765  ti_sysbios_family_arm_cc26xx_Timer_postInit__I                            
1001b791  ti_sysbios_family_arm_cc26xx_Timer_startup__E                             
1001b791  ti_sysbios_knl_Clock_TimerProxy_startup__E                                
1001b7bd  ti_sysbios_family_arm_m3_Hwi_Object__get__S                               
1001b7e9  ti_sysbios_gates_GateMutex_construct                                      
1001b815  ti_sysbios_hal_Hwi_initStack                                              
1001b841  ti_sysbios_heaps_HeapMem_Object__create__S                                
1001b86d  ti_sysbios_heaps_HeapMem_Object__get__S                                   
1001b899  ti_sysbios_knl_Mailbox_Object__get__S                                     
1001b8c5  ti_sysbios_knl_Mailbox_postInit__I                                        
1001b8f1  ti_sysbios_knl_Queue_construct                                            
1001b91d  ti_sysbios_knl_Queue_create                                               
1001b949  ti_sysbios_knl_Semaphore_pendTimeout__I                                   
1001b975  ti_sysbios_knl_Swi_Object__get__S                                         
1001b9a1  ti_sysbios_knl_Task_unblockI__E                                           
1001b9cd  ti_sysbios_family_arm_cc26xx_TimestampProvider_get64__E                   
1001b9cd  xdc_runtime_Timestamp_SupportProxy_get64__E                               
1001b9cd  xdc_runtime_Timestamp_get64__E                                            
1001b9f5  ti_sysbios_hal_Hwi_Instance_init__E                                       
1001ba1d  ti_sysbios_knl_Clock_addI__E                                              
1001ba45  ti_sysbios_knl_Task_restore__E                                            
1001ba6d  ti_sysbios_family_arm_cc26xx_Timer_Module_startup__E                      
1001ba91  ti_sysbios_gates_GateHwi_Object__create__S                                
1001bab5  ti_sysbios_BIOS_RtsGateProxy_Object__delete__S                            
1001bab5  ti_sysbios_gates_GateMutex_Object__delete__S                              
1001bab5  ti_sysbios_heaps_HeapMem_Module_GateProxy_Object__delete__S               
1001bad9  ti_sysbios_knl_Clock_Object__delete__S                                    
1001bafd  ti_sysbios_knl_Semaphore_Instance_init__E                                 
1001bb21  ti_sysbios_knl_Semaphore_Object__delete__S                                
1001bb45  ti_sysbios_family_arm_cc26xx_Timer_Module__startupDone__S                 
1001bb65  ti_sysbios_family_arm_cc26xx_TimestampProvider_Module_startup__E          
1001bb85  ti_sysbios_family_arm_m3_Hwi_Module__startupDone__S                       
1001bba5  ti_sysbios_family_arm_m3_Hwi_Object__delete__S                            
1001bba5  ti_sysbios_hal_Hwi_HwiProxy_Object__delete__S                             
1001bbc5  ti_sysbios_family_arm_m3_Hwi_excHandler__I                                
1001bbe5  ti_sysbios_gates_GateHwi_Handle__label__S                                 
1001bbe5  xdc_runtime_System_Module_GateProxy_Handle__label__S                      
1001bc05  ti_sysbios_gates_GateHwi_Object__delete__S                                
1001bc05  xdc_runtime_System_Module_GateProxy_Object__delete__S                     
1001bc25  ti_sysbios_BIOS_RtsGateProxy_Handle__label__S                             
1001bc25  ti_sysbios_gates_GateMutex_Handle__label__S                               
1001bc25  ti_sysbios_heaps_HeapMem_Module_GateProxy_Handle__label__S                
1001bc45  ti_sysbios_gates_GateMutex_Object__destruct__S                            
1001bc65  ti_sysbios_hal_Hwi_Object__delete__S                                      
1001bc85  ti_sysbios_heaps_HeapMem_Handle__label__S                                 
1001bc85  xdc_runtime_Memory_HeapProxy_Handle__label__S                             
1001bca5  ti_sysbios_heaps_HeapMem_Object__delete__S                                
1001bca5  xdc_runtime_Memory_HeapProxy_Object__delete__S                            
1001bcc5  ti_sysbios_knl_Clock_Module_startup__E                                    
1001bce5  ti_sysbios_knl_Clock_Object__destruct__S                                  
1001bd05  ti_sysbios_knl_Idle_run__E                                                
1001bd25  ti_sysbios_knl_Mailbox_Object__delete__S                                  
1001bd45  ti_sysbios_knl_Queue_Object__delete__S                                    
1001bd65  ti_sysbios_knl_Queue_Object__get__S                                       
1001bd85  ti_sysbios_knl_Semaphore_Object__destruct__S                              
1001bda5  ti_sysbios_knl_Swi_Object__delete__S                                      
1001bdc5  ti_sysbios_knl_Task_Object__delete__S                                     
1001bde5  ti_sysbios_knl_Task_Object__get__S                                        
1001be05  ti_sysbios_knl_Task_enter__I                                              
1001be25  ti_sysbios_knl_Task_restoreHwi__E                                         
1001be45  ti_sysbios_hal_Hwi_HwiProxy_create                                        
1001be63  ti_sysbios_knl_Clock_logTick__E                                           
1001be65  ti_sysbios_family_arm_m3_Hwi_Object__destruct__S                          
1001be81  ti_sysbios_family_arm_m3_Hwi_setPriority__E                               
1001be9d  ti_sysbios_gates_GateMutex_Instance_init__E                               
1001beb9  ti_sysbios_knl_Clock_scheduleNextTick__E                                  
1001bed5  ti_sysbios_knl_Mailbox_Object__destruct__S                                
1001bef1  ti_sysbios_knl_Queue_Object__destruct__S                                  
1001bf0d  ti_sysbios_knl_Queue_get__E                                               
1001bf29  ti_sysbios_knl_Queue_put__E                                               
1001bf45  ti_sysbios_knl_Swi_Object__destruct__S                                    
1001bf61  ti_sysbios_knl_Task_Object__destruct__S                                   
1001bf7d  ti_sysbios_knl_Task_sleepTimeout__I                                       
1001bf97  ti_sysbios_knl_Swi_Instance_finalize__E                                   
1001bf99  ti_sysbios_gates_GateMutex_leave__E                                       
1001bfb1  ti_sysbios_knl_Task_unblock__E                                            
1001bfc9  ti_sysbios_knl_Clock_Instance_finalize__E                                 
1001bfdf  ti_sysbios_knl_Clock_start__E                                             
1001bff5  ti_sysbios_BIOS_getCpuFreq__E                                             
1001c009  ti_sysbios_family_arm_m3_Hwi_switchFromBootStack__E                       
1001c01d  ti_sysbios_hal_Hwi_Module_startup__E                                      
1001c031  ti_sysbios_BIOS_exit__E                                                   
1001c041  ti_sysbios_BIOS_setThreadType__E                                          
1001c051  ti_sysbios_BIOS_start__E                                                  
1001c061  ti_sysbios_family_arm_m3_Hwi_plug__E                                      
1001c071  ti_sysbios_gates_GateMutex_Instance_finalize__E                           
1001c081  ti_sysbios_hal_Hwi_HwiProxy_Object__create__S                             
1001c091  ti_sysbios_knl_Clock_TimerProxy_getCurrentTick__E                         
1001c0a1  ti_sysbios_knl_Clock_TimerProxy_getMaxTicks__E                            
1001c0b1  ti_sysbios_knl_Clock_TimerProxy_setNextTick__E                            
1001c0c1  ti_sysbios_knl_Semaphore_Instance_finalize__E                             
1001c0d1  ti_sysbios_knl_Swi_disable__E                                             
1001c0e1  ti_sysbios_knl_Swi_enabled__E                                             
1001c0f1  ti_sysbios_knl_Task_disable__E                                            
1001c101  ti_sysbios_heaps_HeapMem_restore__E                                       
1001c10f  ti_sysbios_knl_Queue_empty__E                                             
1001c11d  ti_sysbios_knl_Queue_remove__E                                            
1001c12b  ti_sysbios_family_arm_cc26xx_TimestampProvider_getFreq__E                 
1001c12b  xdc_runtime_Timestamp_SupportProxy_getFreq__E                             
1001c12b  xdc_runtime_Timestamp_getFreq__E                                          
1001c139  ti_sysbios_family_arm_m3_Hwi_Params__init__S                              
1001c139  ti_sysbios_hal_Hwi_HwiProxy_Params__init__S                               
1001c145  ti_sysbios_family_arm_m3_Hwi_disableFxn__E                                
1001c151  ti_sysbios_family_arm_m3_Hwi_enableFxn__E                                 
1001c15d  ti_sysbios_family_arm_m3_TaskSupport_getStackAlignment__E                 
1001c169  ti_sysbios_gates_GateHwi_enter__E                                         
1001c175  ti_sysbios_BIOS_RtsGateProxy_Params__init__S                              
1001c175  ti_sysbios_gates_GateMutex_Params__init__S                                
1001c175  ti_sysbios_heaps_HeapMem_Module_GateProxy_Params__init__S                 
1001c181  ti_sysbios_knl_Clock_Params__init__S                                      
1001c18d  ti_sysbios_knl_Clock_getTimerHandle__E                                    
1001c199  ti_sysbios_knl_Mailbox_Params__init__S                                    
1001c1a5  ti_sysbios_knl_Queue_dequeue__E                                           
1001c1b1  ti_sysbios_knl_Queue_enqueue__E                                           
1001c1bd  ti_sysbios_knl_Semaphore_Params__init__S                                  
1001c1c9  ti_sysbios_knl_Swi_Params__init__S                                        
1001c1d5  ti_sysbios_knl_Task_Params__init__S                                       
1001c1e1  ti_sysbios_knl_Task_self__E                                               
1001c1ed  ti_sysbios_hal_Hwi_Instance_finalize__E                                   
1001c1f7  ti_sysbios_family_arm_m3_Hwi_doSwiRestore__I                              
1001c1ff  ti_sysbios_family_arm_m3_Hwi_startup__E                                   
1001c207  ti_sysbios_knl_Idle_loop__E                                               
1001c20f  ti_sysbios_family_arm_m3_Hwi_doTaskRestore__I                             
1001c215  ti_sysbios_family_arm_m3_Hwi_restoreFxn__E                                
1001c21b  ti_sysbios_gates_GateHwi_leave__E                                         
1001c227  ti_sysbios_knl_Queue_Instance_init__E                                     
1001c22d  ti_sysbios_knl_Queue_elemClear__E                                         
1001c233  ti_sysbios_knl_Swi_Module_startup__E                                      
1001c239  ti_sysbios_knl_Swi_startup__E                                             
1001c23f  ti_sysbios_knl_Task_enable__E                                             
1001c245  ti_sysbios_BIOS_RtsGateProxy_enter__E                                     
1001c249  ti_sysbios_BIOS_RtsGateProxy_leave__E                                     
1001c24d  ti_sysbios_family_arm_cc26xx_Timer_getExpiredTicks__E                     
1001c251  ti_sysbios_family_arm_cc26xx_Timer_getPeriod__E                           
1001c255  ti_sysbios_family_arm_cc26xx_Timer_setPeriod__E                           
1001c259  ti_sysbios_family_arm_m3_Hwi_delete                                       
1001c25d  ti_sysbios_family_arm_m3_Hwi_destruct                                     
1001c261  ti_sysbios_family_arm_m3_TaskSupport_Module__startupDone__S               
1001c265  ti_sysbios_gates_GateHwi_query__E                                         
1001c265  xdc_runtime_System_Module_GateProxy_query__E                              
1001c269  ti_sysbios_gates_GateMutex_delete                                         
1001c26d  ti_sysbios_gates_GateMutex_destruct                                       
1001c271  ti_sysbios_BIOS_RtsGateProxy_query__E                                     
1001c271  ti_sysbios_gates_GateMutex_query__E                                       
1001c271  ti_sysbios_heaps_HeapMem_Module_GateProxy_query__E                        
1001c275  ti_sysbios_hal_Hwi_HwiProxy_Module__startupDone__S                        
1001c279  ti_sysbios_hal_Hwi_HwiProxy_delete                                        
1001c27d  ti_sysbios_hal_Hwi_HwiProxy_disableInterrupt__E                           
1001c27d  ti_sysbios_hal_Hwi_disableInterrupt__E                                    
1001c281  ti_sysbios_hal_Hwi_HwiProxy_enableInterrupt__E                            
1001c281  ti_sysbios_hal_Hwi_enableInterrupt__E                                     
1001c285  ti_sysbios_hal_Hwi_HwiProxy_getStackInfo__E                               
1001c285  ti_sysbios_hal_Hwi_getStackInfo__E                                        
1001c289  ti_sysbios_hal_Hwi_HwiProxy_startup__E                                    
1001c289  ti_sysbios_hal_Hwi_startup__E                                             
1001c28d  ti_sysbios_hal_Hwi_HwiProxy_switchFromBootStack__E                        
1001c291  ti_sysbios_hal_Hwi_delete                                                 
1001c295  ti_sysbios_hal_Hwi_switchFromBootStack__E                                 
1001c299  ti_sysbios_heaps_HeapMem_Module_GateProxy_enter__E                        
1001c29d  ti_sysbios_heaps_HeapMem_Module_GateProxy_leave__E                        
1001c2a1  ti_sysbios_heaps_HeapMem_isBlocking__E                                    
1001c2a5  ti_sysbios_knl_Clock_TimerProxy_Module__startupDone__S                    
1001c2a9  ti_sysbios_knl_Clock_TimerProxy_getExpiredTicks__E                        
1001c2ad  ti_sysbios_knl_Clock_TimerProxy_getPeriod__E                              
1001c2b1  ti_sysbios_knl_Clock_delete                                               
1001c2b5  ti_sysbios_knl_Clock_destruct                                             
1001c2b9  ti_sysbios_knl_Clock_removeI__E                                           
1001c2bd  ti_sysbios_knl_Clock_setTimeout__E                                        
1001c2c1  ti_sysbios_knl_Mailbox_delete                                             
1001c2c5  ti_sysbios_knl_Mailbox_destruct                                           
1001c2c9  ti_sysbios_knl_Queue_delete                                               
1001c2cd  ti_sysbios_knl_Queue_destruct                                             
1001c2d1  ti_sysbios_knl_Queue_head__E                                              
1001c2d5  ti_sysbios_knl_Queue_next__E                                              
1001c2d9  ti_sysbios_knl_Semaphore_delete                                           
1001c2dd  ti_sysbios_knl_Semaphore_destruct                                         
1001c2e1  ti_sysbios_knl_Swi_delete                                                 
1001c2e5  ti_sysbios_knl_Swi_destruct                                               
1001c2e9  ti_sysbios_knl_Swi_postInit__I                                            
1001c2ed  ti_sysbios_knl_Task_SupportProxy_Module__startupDone__S                   
1001c2f1  ti_sysbios_knl_Task_SupportProxy_getStackAlignment__E                     
1001c2f5  ti_sysbios_knl_Task_SupportProxy_start__E                                 
1001c2f9  ti_sysbios_knl_Task_SupportProxy_swap__E                                  
1001c2fd  ti_sysbios_knl_Task_delete                                                
1001c301  ti_sysbios_knl_Task_destruct                                              
1001c305  ti_sysbios_knl_Task_startup__E                                            
1001c309  xdc_runtime_Startup_startMods__I                                          
1001c401  xdc_runtime_Core_createObject__I                                          
1001c483  xdc_runtime_Error_policySpin__E                                           
1001c485  xdc_runtime_Memory_alloc__E                                               
1001c4f5  xdc_runtime_Core_deleteObject__I                                          
1001c555  xdc_runtime_Startup_exec__E                                               
1001c5a5  xdc_runtime_Assert_raise__I                                               
1001c5ed  xdc_runtime_Core_assignParams__I                                          
1001c635  xdc_runtime_Core_constructObject__I                                       
1001c67d  xdc_runtime_System_atexit__E                                              
1001c6b5  xdc_runtime_System_processAtExit__E                                       
1001c6e9  xdc_runtime_Core_assignLabel__I                                           
1001c719  xdc_runtime_Text_cordText__E                                              
1001c745  xdc_runtime_System_abort__E                                               
1001c765  xdc_runtime_Error_raiseX__E                                               
1001c781  xdc_runtime_Memory_valloc__E                                              
1001c79d  xdc_runtime_Core_destructObject__I                                        
1001c7b5  xdc_runtime_Error_check__E                                                
1001c7cd  xdc_runtime_System_exit__E                                                
1001c7e5  xdc_runtime_Text_ropeText__E                                              
1001c7fd  xdc_runtime_Memory_free__E                                                
1001c80d  xdc_runtime_SysCallback_abort__E                                          
1001c81d  xdc_runtime_SysCallback_exit__E                                           
1001c82d  xdc_runtime_Timestamp_SupportProxy_get32__E                               
1001c82d  xdc_runtime_Timestamp_get32__E                                            
1001c83d  xdc_runtime_Error_init__E                                                 
1001c849  xdc_runtime_Memory_calloc__E                                              
1001c855  xdc_runtime_Memory_getMaxDefaultTypeAlign__E                              
1001c875  xdc_runtime_Gate_leaveSystem__E                                           
1001c87b  xdc_runtime_System_Module_startup__E                                      
1001c881  xdc_runtime_Gate_enterSystem__E                                           
1001c885  xdc_runtime_Memory_HeapProxy_alloc__E                                     
1001c889  xdc_runtime_Memory_HeapProxy_free__E                                      
1001c88d  xdc_runtime_System_Module_GateProxy_enter__E                              
1001c891  xdc_runtime_System_Module_GateProxy_leave__E                              
1001c895  xdc_runtime_System_abortSpin__E                                           
1001c897  xdc_runtime_System_exitSpin__E                                            
1001c899  ti_sysbios_family_arm_m3_Hwi_dispatch__I                                  
1001c969  ti_sysbios_family_arm_m3_TaskSupport_buildTaskStack                       
1001c9b5  ti_sysbios_family_arm_m3_Hwi_initStacks__E                                
1001c9fd  ti_sysbios_family_arm_m3_Hwi_excHandlerAsm__I                             
1001ca1d  ti_sysbios_family_xxx_Hwi_switchAndRunFunc                                
1001ca3b  ti_sysbios_family_arm_m3_Hwi_pendSV__I                                    
1001ca53  ti_sysbios_family_arm_m3_Hwi_return                                       
1001ca55  ti_sysbios_family_arm_m3_TaskSupport_glue                                 
1001ca65  ti_sysbios_family_arm_m3_TaskSupport_swap__E                              
1001ca6d  ti_sysbios_knl_Task_swapReturn                                            
1001ca97  ti_sysbios_rom_cortexm_cc13xx_CC13xx_getRevision__E                       
20000000  ti_sysbios_family_arm_m3_Hwi_ramVectors                                   
20000100  ti_sysbios_knl_Task_Module__state__V                                      
20000144  ti_sysbios_family_arm_m3_Hwi_Module__state__V                             
20000178  ti_sysbios_knl_Clock_Module__state__V                                     
200001a4  ti_sysbios_BIOS_Module__state__V                                          
200001c8  ti_sysbios_knl_Swi_Module__state__V                                       
200001e4  ti_sysbios_family_arm_cc26xx_Timer_Module__state__V                       
200001ec  ti_sysbios_family_arm_cc26xx_TimestampProvider_Module__state__V           
200001f0  xdc_runtime_Startup_Module__state__V                                      
200001f8  xdc_runtime_System_Module__state__V                                       
20000200  xdc_runtime_Memory_Module__state__V                                       
20000520  buffers                                                                   
20001120  ti_sysbios_heaps_HeapMem_Instance_State_0_buf__A                          
20002120  ti_sysbios_knl_Task_Instance_State_0_stack__A                             
20002720  spiCC26XXDMAObjects                                                       
200028d8  __CIOBUF_                                                                 
200029f8  uartCC26XXObjects                                                         
20002b0c  i2cCC26xxObjects                                                          
20002bec  ti_sysbios_family_arm_m3_Hwi_dispatchTable                                
20002cb4  __TI_tmpnams                                                              
20002d54  PIN_HandleTable                                                           
20002dd0  ledsGrnTask                                                               
20002e20  ledsRedTask                                                               
20002e70  testTask                                                                  
200030c4  udmaObjects                                                               
2000311c  packetReceivedSemaphoreStruct                                             
20003158  ledsSemaphores                                                            
20003178  dataQueue                                                                 
20003188  PIN_NumPins                                                               
2000318c  freeMailbox                                                               
20003190  i2cHandle                                                                 
20003194  incomingBuffer                                                            
200031a0  packetReceivedSemaphore                                                   
200031a4  readEntry                                                                 
200031a8  readyBuffer                                                               
200031ac  spiHandle                                                                 
200031b4  uartRxMailbox                                                             
200031bc  uartTxMailbox                                                             
200031c4  driverlib_release_0_46593                                                 
200031c8  PowerCC26XX_module                                                        
200032d8  _ftable                                                                   
200033c8  ti_sysbios_family_arm_cc26xx_Timer_Module__root__V                        
200033d0  ti_sysbios_family_arm_m3_Hwi_Module__root__V                              
200033d8  ti_sysbios_family_arm_m3_Hwi_Object__table__V                             
200033f0  ti_sysbios_family_arm_m3_Hwi_Module_State_0_excActive__A                  
200033f4  ti_sysbios_family_arm_m3_Hwi_Module_State_0_excContext__A                 
200033f8  ti_sysbios_family_arm_m3_Hwi_Module_State_0_excStack__A                   
200033fc  ti_sysbios_family_arm_m3_Timer_Module__root__V                            
20003404  ti_sysbios_gates_GateHwi_Module__root__V                                  
2000340c  ti_sysbios_gates_GateHwi_Object__table__V                                 
20003410  ti_sysbios_gates_GateMutex_Module__root__V                                
20003418  ti_sysbios_hal_Hwi_Module__root__V                                        
20003420  ti_sysbios_hal_Timer_Module__root__V                                      
20003428  ti_sysbios_heaps_HeapMem_Module__root__V                                  
20003430  ti_sysbios_heaps_HeapMem_Object__table__V                                 
20003448  ti_sysbios_knl_Clock_Module__root__V                                      
20003450  ti_sysbios_knl_Clock_Object__table__V                                     
20003470  ti_sysbios_knl_Event_Module__root__V                                      
20003478  ti_sysbios_knl_Mailbox_Module__root__V                                    
20003480  ti_sysbios_knl_Queue_Module__root__V                                      
20003488  ti_sysbios_knl_Semaphore_Module__root__V                                  
20003490  ti_sysbios_knl_Swi_Module__root__V                                        
20003498  ti_sysbios_knl_Task_Module__root__V                                       
200034a0  ti_sysbios_knl_Task_Module_State_0_idleTask__A                            
200034a4  __xdc__init__addr                                                         
20003628  radio_cmd_prop_div_setup                                                  
200036c8  radio_cmd_prop_rx                                                         
20003758  radio_cmd_prop_tx_adv                                                     
200037d8  _Denorm                                                                   
200037e8  _Eps                                                                      
200037f8  _Hugeval                                                                  
20003808  _Inf                                                                      
20003818  _Nan                                                                      
20003828  _Snan                                                                     
20003838  _Rteps                                                                    
20003848  _Xbig                                                                     
20003850  _Zero                                                                     
20003858  radio_cmd_fs                                                              
200038b8  radio_cmd_prop_tx                                                         
20003918  ti_sysbios_knl_Task_Module_State_0_readyQ__A                              
200039d0  ti_sysbios_knl_Task_Object__table__V                                      
20003a20  ti_sysbios_family_arm_cc26xx_Timer_Object__table__V                       
20003a68  radio_mode                                                                
20003aa8  ti_sysbios_gates_GateMutex_Object__table__V                               
20003ae0  ti_sysbios_knl_Swi_Module_State_0_readyQ__A                               
20003b10  ti_sysbios_knl_Swi_Object__table__V                                       
20003b40  __TI_ft_end                                                               
20003b44  __aeabi_stdin                                                             
20003b48  __aeabi_stdout                                                            
20003b4c  __aeabi_stderr                                                            
20003b5c  ti_sysbios_family_arm_m3_Timer_Module__state__V                           
20003b68  pinTable                                                                  
20003b74  _lock                                                                     
20003b78  _unlock                                                                   
20003b7c  __TI_cleanup_ptr                                                          
20003b80  __TI_dtors_ptr                                                            
20003b84  _Fenv                                                                     
20003b88  _Tls_setup__Fenv                                                          
20003b94  _Errno                                                                    
20003b9c  main_func_sp                                                              
20004d00  __stack                                                                   
20005000  __STACK_END                                                               
e000e000  ti_sysbios_family_arm_m3_Hwi_nvic                                         
ffffffff  __binit__                                                                 
ffffffff  __c_args__                                                                
ffffffff  binit                                                                     
UNDEFED   HwiP_restore                                                              
UNDEFED   SHT$$INIT_ARRAY$$Base                                                     
UNDEFED   SHT$$INIT_ARRAY$$Limit                                                    
UNDEFED   scifOsalEnterCriticalSection                                              
UNDEFED   scifOsalLeaveCriticalSection                                              
UNDEFED   ti_sysbios_BIOS_RtsGateProxy_Handle__label__S__mangled__                  
UNDEFED   ti_sysbios_BIOS_RtsGateProxy_Object__delete__S__mangled__                 
UNDEFED   ti_sysbios_BIOS_RtsGateProxy_Params__init__S__mangled__                   
UNDEFED   ti_sysbios_BIOS_RtsGateProxy_query__E__mangled__                          
UNDEFED   ti_sysbios_hal_Hwi_HwiProxy_Module__startupDone__S__mangled__             
UNDEFED   ti_sysbios_hal_Hwi_HwiProxy_Object__delete__S__mangled__                  
UNDEFED   ti_sysbios_hal_Hwi_HwiProxy_Params__init__S__mangled__                    
UNDEFED   ti_sysbios_hal_Hwi_HwiProxy_disableInterrupt__E__mangled__                
UNDEFED   ti_sysbios_hal_Hwi_HwiProxy_enableInterrupt__E__mangled__                 
UNDEFED   ti_sysbios_hal_Hwi_HwiProxy_getStackInfo__E__mangled__                    
UNDEFED   ti_sysbios_hal_Hwi_HwiProxy_startup__E__mangled__                         
UNDEFED   ti_sysbios_hal_Hwi_HwiProxy_switchFromBootStack__E__mangled__             
UNDEFED   ti_sysbios_hal_Hwi_disableInterrupt__E                                    
UNDEFED   ti_sysbios_hal_Hwi_enableInterrupt__E                                     
UNDEFED   ti_sysbios_hal_Hwi_getStackInfo__E                                        
UNDEFED   ti_sysbios_hal_Hwi_startup__E                                             
UNDEFED   ti_sysbios_hal_Hwi_switchFromBootStack__E                                 
UNDEFED   ti_sysbios_heaps_HeapMem_Module_GateProxy_Handle__label__S__mangled__     
UNDEFED   ti_sysbios_heaps_HeapMem_Module_GateProxy_Object__delete__S__mangled__    
UNDEFED   ti_sysbios_heaps_HeapMem_Module_GateProxy_Params__init__S__mangled__      
UNDEFED   ti_sysbios_heaps_HeapMem_Module_GateProxy_query__E__mangled__             
UNDEFED   ti_sysbios_knl_Clock_TimerProxy_Module__startupDone__S__mangled__         
UNDEFED   ti_sysbios_knl_Clock_TimerProxy_startup__E__mangled__                     
UNDEFED   ti_sysbios_knl_Task_SupportProxy_Module__startupDone__S__mangled__        
UNDEFED   ti_sysbios_knl_Task_SupportProxy_getStackAlignment__E__mangled__          
UNDEFED   ti_sysbios_knl_Task_SupportProxy_start__E__mangled__                      
UNDEFED   ti_sysbios_knl_Task_SupportProxy_swap__E__mangled__                       
UNDEFED   xdc_runtime_Main_Module_GateProxy_Handle__label__S                        
UNDEFED   xdc_runtime_Main_Module_GateProxy_Object__delete__S                       
UNDEFED   xdc_runtime_Main_Module_GateProxy_query__E                                
UNDEFED   xdc_runtime_Memory_HeapProxy_Handle__label__S__mangled__                  
UNDEFED   xdc_runtime_Memory_HeapProxy_Object__delete__S__mangled__                 
UNDEFED   xdc_runtime_System_Module_GateProxy_Handle__label__S__mangled__           
UNDEFED   xdc_runtime_System_Module_GateProxy_Object__delete__S__mangled__          
UNDEFED   xdc_runtime_System_Module_GateProxy_query__E__mangled__                   
UNDEFED   xdc_runtime_Timestamp_SupportProxy_get64__E__mangled__                    
UNDEFED   xdc_runtime_Timestamp_SupportProxy_getFreq__E__mangled__                  
UNDEFED   xdc_runtime_Timestamp_get32__E                                            
UNDEFED   xdc_runtime_Timestamp_get64__E                                            
UNDEFED   xdc_runtime_Timestamp_getFreq__E                                          

[911 symbols]
